
 Start  Stop   Length Name               Class

 00000H 00061H 00062H HexEdit            CODE
 00070H 014BDH 0144EH VIEWU              CODE
 014C0H 02475H 00FB6H OutCRT             CODE
 02480H 036D8H 01259H FUtil              CODE
 036E0H 0403CH 0095DH Center             CODE
 04040H 0443FH 00400H MouseIN            CODE
 04440H 07EA2H 03A63H KeyIn              CODE
 07EB0H 07EB0H 00000H Macro              CODE
 07EB0H 0A7B7H 02908H View2              CODE
 0A7C0H 0BBB6H 013F7H Color              CODE
 0BBC0H 0C3E3H 00824H PrintU             CODE
 0C3F0H 0C89AH 004ABH BinEd              CODE
 0C8A0H 0D38BH 00AECH Search             CODE
 0D390H 0DD94H 00A05H Second             CODE
 0DDA0H 13FF2H 06253H WTD                CODE
 14000H 140EFH 000F0H Res                CODE
 140F0H 144E6H 003F7H Help               CODE
 144F0H 15DC0H 018D1H UModify            CODE
 15DD0H 15DEFH 00020H GShift             CODE
 15DF0H 16C8AH 00E9BH Block              CODE
 16C90H 170E1H 00452H LowInt             CODE
 170F0H 170F0H 00000H IBK                CODE
 170F0H 17533H 00444H PCX                CODE
 17540H 18988H 01449H GIF                CODE
 18990H 19648H 00CB9H CFG                CODE
 19650H 19EC7H 00878H CMFTool            CODE
 19ED0H 1A794H 008C5H VOCTOOL            CODE
 1A7A0H 1AA18H 00279H VConvert           CODE
 1AA20H 1AFB7H 00598H CNT                CODE
 1AFC0H 1B005H 00046H Cursor             CODE
 1B010H 1B025H 00016H Header             CODE
 1B030H 1B995H 00966H ChFile             CODE
 1B9A0H 1BD71H 003D2H Ollis              CODE
 1BD80H 1C0AEH 0032FH Dos                CODE
 1C0B0H 1C6CEH 0061FH Crt                CODE
 1C6D0H 20E3FH 04770H System             CODE
 20E40H 2209BH 0125CH DATA               DATA
 220A0H 2609FH 04000H STACK              STACK
 260A0H 260A0H 00000H HEAP               HEAP

  Address         Publics by Value

 0000:0000       @
 0007:0D34       VIEW
 0007:0E55       SvTextScreen
 0007:0E7E       RsTextScreen
 0007:0EA7       DrawWindow
 0007:10AE       OpenWindow
 0007:10DF       CloseWindow
 0007:10FC       Pause
 0007:11B6       Choice
 0007:1408       @
 014C:0000       Path2File
 014C:00D9       WriteScreen
 014C:0419       WriteCharStrip
 014C:06E0       ShowDataStrip
 014C:0B43       DisplayData
 014C:0CDF       ErrorMsg
 014C:0D74       InsertSpaces
 014C:0EE2       DefaultOutPut
 0248:0012       CheckIOError
 0248:00BF       SizeOfFile
 0248:0170       GetFileByte
 0248:01B4       GetFileWord
 0248:01F9       GetFileLong
 0248:026E       SaveSegment
 0248:040C       RestoreSegment
 0248:0536       Relocate
 0248:070B       SaveTemp
 0248:084E       RestoreTemp
 0248:09D0       LoadFile
 0248:0C1A       LoadFile2
 0248:0D5A       ToggleChanges
 0248:0F80       CheckFileType
 036E:0000       GetFLINFileName
 036E:00E2       IsFLIN
 036E:0664       Main
 036E:0938       @
 0404:0000       MInput
 0444:016E       HEXEDInfo
 0444:0320       DosShell
 0444:0531       DrawMenu
 0444:2282       Repaint
 0444:2627       Commands
 0444:3A51       @
 07EB:1B8A       Repaint2
 07EB:1C85       SecondOutput
 07EB:28E5       @
 0A7C:121B       ConfigureColor
 0A7C:13E8       @
 0BBC:0004       Byte2Bin
 0BBC:0365       PrintPage
 0BBC:0682       Print
 0C3F:0268       BinaryEditor
 0C3F:049A       @
 0C8A:0814       DoFindSearch
 0C8A:0ABD       FindArray
 0D39:0088       AdditionalFile
 0D39:0515       SwapFiles
 0D39:0712       SearchDiff
 0DDA:2636       WriteTypeData
 1400:00DE       @
 140F:0000       WriteHelpWindow
 140F:0151       LoadHelp
 140F:032A       WriteHelp
 144F:00E1       StringEdit
 144F:03CB       HexModify
 144F:04B7       CharModify
 144F:0586       NameChange
 144F:0694       SetX
 144F:0788       WhatInsert
 144F:0919       ReallyQuit
 144F:0A69       DelByte
 144F:0B5B       WordModify
 144F:0C76       LongModify
 144F:104F       SearchStr
 144F:120D       ReallyDispose
 144F:137F       AskSlash
 144F:140F       InsertString
 144F:1666       SaveAs
 15DD:0000       GetShiftByte
 15DF:0031       DeleteBlock
 15DF:037C       XTract
 15DF:052C       CopyBlock
 15DF:08B3       MoveBlock
 15DF:0A69       WriteBlock
 15DF:0CE2       ReadBlock
 16C9:001E       FastInsert
 16C9:0241       DoInsert
 16C9:03A2       IfStrThere
 170F:0231       DrawPCXMem
 1754:09C8       DrawGIFDsk
 1754:1280       DrawIMGMem
 1899:0000       HelpDir
 1899:007C       CheckOverflow
 1899:0C7E       @
 1965:0149       PrintCMFErrMessage
 1965:03AB       CMFGetSongBuffer
 1965:052D       CMFFreeSongBuffer
 1965:0578       CMFInitDriver
 1965:062F       CMFSetStatusByte
 1965:065A       CMFSetInstruments
 1965:06D9       CMFSetDriverClock
 1965:0712       CMFPlaySong
 1965:07A2       CMFStopSong
 1965:081F       InitCMFSB
 1965:0867       @
 19ED:0164       PrintVOCErrMessage
 19ED:040C       VOCGetBuffer
 19ED:0565       VOCFreeBuffer
 19ED:05B0       VOCGetVersion
 19ED:05E0       VOCInitDriver
 19ED:0787       VOCDeInstallDriver
 19ED:07B1       VOCSetSpeaker
 19ED:07D5       VOCOutput
 19ED:0813       VOCStop
 19ED:0860       InitVocSB
 19ED:08B4       @
 1A7A:0000       StrToInt
 1A7A:0068       UpString
 1A7A:00E2       IntToStr
 1A7A:011E       Byte2Str
 1A7A:0173       Long2Str
 1A7A:01F6       Word2Str
 1AA2:0209       WriteContactMsg
 1AFC:0000       HideCursor
 1AFC:0016       ShowCursor
 1AFC:002E       BigCursor
 1B01:0000       @
 1B03:05C8       ChooseFileName
 1B9A:0000       UnInitGraph
 1B9A:0021       InitGraph
 1B9A:00A5       SetPal
 1B9A:00FA       GetPal
 1B9A:0134       HideMC
 1B9A:0161       ShowMC
 1B9A:018E       Mouse
 1B9A:01F4       IntToStr
 1B9A:022C       InitMC
 1B9A:02D6       GetMouseX
 1B9A:02FD       GetMouseY
 1B9A:0324       MouseButtonPressed
 1B9A:036C       MouseButtonReleased
 1B9A:03B4       @
 1BD8:0000       FindFirst
 1BD8:003E       FindNext
 1BD8:007C       UnpackTime
 1BD8:00C0       PackTime
 1BD8:00F8       GetIntVec
 1BD8:0110       SetIntVec
 1BD8:0123       FSplit
 1BD8:0187       GetEnv
 1BD8:01F5       Exec
 1BD8:0289       DosExitCode
 1BD8:028E       MsDos
 1BD8:0299       Intr
 1BD8:02F6       SwapVectors
 1C0B:000D       @
 1C0B:0177       TextMode
 1C0B:018C       Window
 1C0B:01CC       ClrScr
 1C0B:01E6       ClrEol
 1C0B:01FA       InsLine
 1C0B:01FF       DelLine
 1C0B:021F       GotoXY
 1C0B:024B       WhereX
 1C0B:0257       WhereY
 1C0B:0263       TextColor
 1C0B:027D       TextBackground
 1C0B:0295       LowVideo
 1C0B:029B       HighVideo
 1C0B:02A1       NormVideo
 1C0B:02A8       Delay
 1C0B:02D4       Sound
 1C0B:0301       NoSound
 1C0B:0308       KeyPressed
 1C0B:031A       ReadKey
 1C0B:033C       AssignCrt
 20E4:05BC       UnRegisteredLimit
 20E4:05C0       BinFileType
 20E4:065A       ExeFileType
 20E4:06F4       Bit
 20E4:06FC       FileSet
 20E4:071C       NormSet
 20E4:073C       NumSet
 20E4:075C       OvrCodeList
 20E4:075E       OvrHeapSize
 20E4:0760       OvrDebugPtr
 20E4:0764       OvrHeapOrg
 20E4:0766       OvrHeapPtr
 20E4:0768       OvrHeapEnd
 20E4:076A       OvrLoadList
 20E4:076C       OvrDosHandle
 20E4:076E       OvrEmsHandle
 20E4:0770       HeapOrg
 20E4:0774       HeapPtr
 20E4:0778       HeapEnd
 20E4:077C       FreeList
 20E4:0780       FreeZero
 20E4:0784       HeapError
 20E4:0788       ExitProc
 20E4:078C       ExitCode
 20E4:078E       ErrorAddr
 20E4:0792       PrefixSeg
 20E4:0794       StackLimit
 20E4:0796       InOutRes
 20E4:0798       RandSeed
 20E4:079C       SelectorInc
 20E4:079E       Seg0040
 20E4:07A0       SegA000
 20E4:07A2       SegB000
 20E4:07A4       SegB800
 20E4:07A6       Test8086
 20E4:07A7       Test8087
 20E4:07A8       FileMode
 20E4:07AC       tmptxtscreen
 20E4:07B0       screen
 20E4:07B4       SaveScreen
 20E4:07B6       Seek_To
 20E4:08C8       Resolution
 20E4:08CA       EscExit
 20E4:08DC       LeftButton
 20E4:08DD       RightButton
 20E4:08DE       CenterButton
 20E4:08DF       SaveTextAttr
 20E4:08E0       MousePresent
 20E4:0CD8       CMFStatusByte
 20E4:0CDA       CMFErrStat
 20E4:0CDC       CMFDriverInstalled
 20E4:0CDE       CMFDriverIRQ
 20E4:0CE0       CMFSongPaused
 20E4:0CE2       OldExitProc
 20E4:0CFE       VOCStatusWord
 20E4:0D00       VOCErrStat
 20E4:0D02       VOCFileHeader
 20E4:0E02       VOCFileHeaderLength
 20E4:0E03       VOCPaused
 20E4:0E04       VOCDriverInstalled
 20E4:0E06       VOCDriverVersion
 20E4:0E08       VOCPtrToDriver
 20E4:0E0C       OldExitProc
 20E4:0E24       ICFG
 20E4:0E38       viewMode
 20E4:0E39       Paused
 20E4:0E3A       Secondary
 20E4:0E3E       AutomaticTUse
 20E4:0E40       FilePath
 20E4:0E90       SearchFor
 20E4:0EB6       FArray
 20E4:0EC9       NumElement
 20E4:0ECA       CurrentElement
 20E4:0ECC       I
 20E4:0ECE       N
 20E4:0ED0       C1
 20E4:0ED1       C2
 20E4:0ED2       Data
 20E4:0FC6       Hp
 20E4:0FCA       DefVarEd
 20E4:0FCC       AltMode
 20E4:0FCE       GraphAcc1
 20E4:0FD2       MinX
 20E4:0FD4       MinY
 20E4:0FD6       MaxX
 20E4:0FD8       MaxY
 20E4:0FDA       Color1
 20E4:0FDB       Color2
 20E4:0FDC       Mode
 20E4:0FDE       CMFIOAddress
 20E4:0FE0       DosError
 20E4:0FE6       CheckBreak
 20E4:0FE7       CheckEOF
 20E4:0FE8       DirectVideo
 20E4:0FE9       CheckSnow
 20E4:0FEA       LastMode
 20E4:0FEC       TextAttr
 20E4:0FEE       WindMin
 20E4:0FF0       WindMax
 20E4:0FFA       Input
 20E4:10FA       Output
 20E4:11FA       SaveInt00
 20E4:11FE       SaveInt02
 20E4:1202       SaveInt1B
 20E4:1206       SaveInt21
 20E4:120A       SaveInt23
 20E4:120E       SaveInt24
 20E4:1212       SaveInt34
 20E4:1216       SaveInt35
 20E4:121A       SaveInt36
 20E4:121E       SaveInt37
 20E4:1222       SaveInt38
 20E4:1226       SaveInt39
 20E4:122A       SaveInt3A
 20E4:122E       SaveInt3B
 20E4:1232       SaveInt3C
 20E4:1236       SaveInt3D
 20E4:123A       SaveInt3E
 20E4:123E       SaveInt3F
 20E4:1242       SaveInt75

Line numbers for HexEdit(HEXED.PAS) segment HexEdit

    64 0000:0000    65 0000:0055    66 0000:005A

Line numbers for VIEWU(VIEWU.PAS) segment VIEWU

    75 0007:0000    77 0007:000E    78 0007:0010    79 0007:0012
    81 0007:0015    82 0007:001B    87 0007:0020    89 0007:002A
    90 0007:002C    91 0007:002F    93 0007:0031   105 0007:0057
   106 0007:0066   108 0007:0077   109 0007:0089   111 0007:008C
   112 0007:009B   114 0007:00AB   115 0007:00B9   117 0007:00CF
   118 0007:00D6   119 0007:00FB   120 0007:0106   121 0007:010D
   122 0007:0111   123 0007:0116   124 0007:0129   125 0007:0138
   132 0007:013C   133 0007:014B   134 0007:0152   135 0007:0176
   136 0007:0181   138 0007:0188   139 0007:019B   141 0007:019F
   142 0007:01A7   143 0007:01BA   149 0007:01BE   150 0007:01CD
   151 0007:01D6   152 0007:01F4   153 0007:01FC   154 0007:020F
   160 0007:0213   161 0007:0222   162 0007:0230   163 0007:0247
   164 0007:024E   165 0007:025A   166 0007:0273   167 0007:029E
   168 0007:02A9   169 0007:02AD   170 0007:02B2   182 0007:0465
   183 0007:048B   184 0007:0490   186 0007:0497   187 0007:04AC
   188 0007:04B3   190 0007:04C2   191 0007:04D0   192 0007:04E6
   195 0007:04F6   196 0007:050C   197 0007:0538   199 0007:0550
   200 0007:0566   201 0007:05A7   202 0007:05CC   203 0007:05F1
   204 0007:0607   205 0007:060E   207 0007:0626   208 0007:063C
   209 0007:0652   210 0007:0659   212 0007:0671   213 0007:0687
   214 0007:069D   215 0007:06A4   217 0007:06BC   218 0007:06D2
   219 0007:06F7   220 0007:071C   221 0007:0732   222 0007:073E
   223 0007:076D   224 0007:0791   225 0007:0796   227 0007:079B
   228 0007:079F   229 0007:07A4   230 0007:07A8   232 0007:07AF
   233 0007:07B4   235 0007:07BF   241 0007:07C3   242 0007:07E5
   243 0007:07FC   244 0007:0806   245 0007:080F   247 0007:0829
   248 0007:0842   257 0007:0846   258 0007:086C   259 0007:087D
   260 0007:088B   261 0007:089F   262 0007:08AA   265 0007:08BA
   267 0007:08C6   268 0007:08D8   269 0007:08EE   270 0007:08F8
   271 0007:08FF   272 0007:0904   273 0007:0908   274 0007:090D
   275 0007:0913   276 0007:091D   277 0007:0928   278 0007:0934
   280 0007:0939   281 0007:093D   282 0007:0942   283 0007:0946
   293 0007:09C2   294 0007:09D1   295 0007:09DF   296 0007:09F4
   299 0007:0A04   300 0007:0A1A   301 0007:0A38   303 0007:0A50
   304 0007:0A66   305 0007:0A7C   306 0007:0A81   308 0007:0A90
   309 0007:0AA8   310 0007:0AAF   311 0007:0AB1   312 0007:0AC4
   314 0007:0AC9   315 0007:0ACD   316 0007:0AD2   317 0007:0AD6
   329 0007:0B9B   330 0007:0BC1   331 0007:0BC6   333 0007:0BCD
   334 0007:0BE2   335 0007:0BE9   337 0007:0BF6   338 0007:0C04
   339 0007:0C1A   342 0007:0C2A   343 0007:0C49   345 0007:0C61
   346 0007:0C77   347 0007:0C9C   348 0007:0CDD   349 0007:0D02
   351 0007:0D07   352 0007:0D0C   353 0007:0D10   354 0007:0D15
   355 0007:0D19   357 0007:0D20   358 0007:0D25   360 0007:0D30
   366 0007:0D34   367 0007:0D5A   369 0007:0D60   370 0007:0D7C
   371 0007:0D83   373 0007:0D8E   374 0007:0D94   375 0007:0D9C
   376 0007:0DA2   377 0007:0DB0   378 0007:0DB6   379 0007:0DBE
   381 0007:0DC4   382 0007:0DE4   383 0007:0DEB   385 0007:0DF6
   386 0007:0DFC   387 0007:0E0A   389 0007:0E10   390 0007:0E30
   391 0007:0E37   393 0007:0E42   394 0007:0E48   395 0007:0E51
   399 0007:0E55   400 0007:0E5F   401 0007:0E68   402 0007:0E7C
   407 0007:0E7E   408 0007:0E88   409 0007:0E91   410 0007:0EA5
   416 0007:0EA7   417 0007:0EB5   418 0007:0ED3   419 0007:0EEF
   420 0007:0EF5   421 0007:0F24   422 0007:0F45   423 0007:0F50
   424 0007:0F72   425 0007:0F85   426 0007:0F9B   427 0007:0FB6
   428 0007:0FC9   430 0007:0FDF   431 0007:0FF2   432 0007:1008
   433 0007:1023   434 0007:1036   435 0007:103E   436 0007:1051
   437 0007:1067   438 0007:1082   439 0007:1095   440 0007:10AA
   445 0007:10AE   446 0007:10B8   447 0007:10BF   448 0007:10C3
   449 0007:10DB   454 0007:10DF   455 0007:10E9   456 0007:10ED
   457 0007:10FA   462 0007:10FC   463 0007:1106   467 0007:114C
   474 0007:114E   475 0007:115C   476 0007:1160   477 0007:116C
   478 0007:1172   479 0007:1189   480 0007:118F   482 0007:11A6
   483 0007:11B2   489 0007:11B6   490 0007:1222   491 0007:123C
   492 0007:1242   494 0007:1248   495 0007:1251   497 0007:126E
   499 0007:1278   501 0007:127E   502 0007:1283   503 0007:1287
   504 0007:12A6   505 0007:12C4   506 0007:12E2   507 0007:1300
   508 0007:131E   510 0007:133A   511 0007:1343   512 0007:134D
   514 0007:1356   515 0007:1360   517 0007:1368   518 0007:136E
   520 0007:1373   522 0007:137D   524 0007:1383   525 0007:1390
   526 0007:1399   527 0007:139E   528 0007:13A5   529 0007:13AE
   530 0007:13B5   531 0007:13BE   532 0007:13C5   533 0007:13CB
   534 0007:13D4   535 0007:13DB   536 0007:13EC   537 0007:13F3
   539 0007:13FC   540 0007:1401   544 0007:1408   545 0007:1412
   546 0007:141A   547 0007:142B   548 0007:143A   549 0007:1442
   550 0007:1447   551 0007:144C

Line numbers for OutCRT(OUTCRT.PAS) segment OutCRT

    35 014C:0000    36 014C:0026    37 014C:0043    38 014C:0077
    45 014C:00D9    46 014C:00E8    47 014C:00EF    49 014C:00FE
    50 014C:010F    51 014C:0115    52 014C:011A    53 014C:0123
    54 014C:0151    55 014C:015A    56 014C:0160    57 014C:01A3
    58 014C:01A9    59 014C:01B3    61 014C:01CB    62 014C:01E1
    63 014C:01E7    64 014C:020B    65 014C:0216    66 014C:023F
    67 014C:0248    68 014C:025B    69 014C:0268    70 014C:026F
    71 014C:0272    72 014C:027B    73 014C:0281    75 014C:034B
    76 014C:03C2    77 014C:03C7    78 014C:03D4    79 014C:03D7
    80 014C:03F1    82 014C:0409    83 014C:040E    92 014C:0419
    93 014C:0427    95 014C:043C    96 014C:0446    98 014C:0449
    99 014C:045D   100 014C:04AD   102 014C:04CF   103 014C:04E8
   104 014C:04F8   106 014C:050C   107 014C:0512   108 014C:0537
   109 014C:053D   110 014C:0564   111 014C:056A   113 014C:05C0
   114 014C:05C6   115 014C:05CE   116 014C:05D4   117 014C:0624
   118 014C:062A   120 014C:0636   121 014C:063F   123 014C:0662
   124 014C:0678   125 014C:067A   126 014C:0683   128 014C:06A9
   129 014C:06BF   130 014C:06D1   139 014C:06E0   140 014C:06EF
   141 014C:06F3   142 014C:06FC   143 014C:071B   145 014C:0762
   146 014C:0768   147 014C:0785   148 014C:078B   149 014C:07AA
   150 014C:07B0   152 014C:07F6   153 014C:07FC   154 014C:0811
   155 014C:0817   156 014C:0827   158 014C:0870   159 014C:0896
   160 014C:08A8   161 014C:08C0   162 014C:08D2   163 014C:08E5
   166 014C:08E7   167 014C:08ED   169 014C:0903   170 014C:0907
   171 014C:091D   172 014C:0921   173 014C:0940   175 014C:0987
   176 014C:098D   177 014C:09AA   178 014C:09B0   179 014C:09CF
   180 014C:09D5   182 014C:0A1B   183 014C:0A21   184 014C:0A36
   185 014C:0A3C   186 014C:0A4D   187 014C:0A8D   190 014C:0AC6
   191 014C:0ACC   193 014C:0AE2   194 014C:0AED   195 014C:0B03
   196 014C:0B10   197 014C:0B20   198 014C:0B26   199 014C:0B3C
   207 014C:0B43   208 014C:0B52   209 014C:0B5F   210 014C:0B65
   211 014C:0B68   212 014C:0B71   213 014C:0B77   214 014C:0B84
   215 014C:0BAC   216 014C:0BC1   217 014C:0BF4   218 014C:0C0A
   219 014C:0C26   220 014C:0C3B   221 014C:0C62   222 014C:0C78
   223 014C:0CA9   224 014C:0CD9   229 014C:0CDF   230 014C:0D05
   231 014C:0D30   232 014C:0D5C   233 014C:0D61   234 014C:0D66
   235 014C:0D6B   236 014C:0D70   241 014C:0D74   242 014C:0D7E
   244 014C:0D85   245 014C:0D8E   246 014C:0D93   247 014C:0D9C
   248 014C:0DA1   250 014C:0DAA   251 014C:0DB3   252 014C:0DB8
   253 014C:0DC1   256 014C:0DC6   258 014C:0DCD   259 014C:0DD6
   260 014C:0DDB   261 014C:0DE4   262 014C:0DE9   264 014C:0DF2
   265 014C:0DFB   266 014C:0E00   267 014C:0E09   270 014C:0E0E
   272 014C:0E15   273 014C:0E1E   274 014C:0E23   275 014C:0E2C
   276 014C:0E31   278 014C:0E3A   279 014C:0E43   280 014C:0E48
   281 014C:0E51   284 014C:0E56   286 014C:0E5D   287 014C:0E66
   288 014C:0E6B   290 014C:0E74   291 014C:0E7D   294 014C:0E82
   296 014C:0E89   297 014C:0E92   298 014C:0E97   300 014C:0EA0
   301 014C:0EA9   304 014C:0EAE   306 014C:0EB5   307 014C:0EBE
   308 014C:0EC3   310 014C:0ECC   311 014C:0ED5   314 014C:0EDA
   315 014C:0EDE   320 014C:0EE2   321 014C:0EEC   322 014C:0EF6
   323 014C:0EFF   324 014C:0F0A   326 014C:0F1A   327 014C:0F43
   329 014C:0F4E   330 014C:0F61   331 014C:0F68   332 014C:0F81
   333 014C:0F97   334 014C:0FAB   335 014C:0FB4

Line numbers for FUtil(FUTIL.PAS) segment FUtil

    41 0248:0012    42 0248:0038    43 0248:0041    45 0248:0051
    46 0248:0063    47 0248:00A6    48 0248:00B5    50 0248:00BB
    58 0248:00BF    59 0248:00E5    60 0248:00F8    61 0248:0106
    66 0248:0110    67 0248:0136    68 0248:0145    69 0248:0159
    70 0248:016C    77 0248:0170    78 0248:017E    79 0248:0182
    80 0248:0192    81 0248:01A7    82 0248:01AD    89 0248:01B4
    90 0248:01C2    91 0248:01C7    92 0248:01D7    93 0248:01EC
    94 0248:01F2   101 0248:01F9   102 0248:0207   103 0248:020F
   104 0248:021F   105 0248:0234   106 0248:0240   112 0248:026E
   113 0248:027C   114 0248:0286   115 0248:0289   116 0248:0291
   117 0248:02A8   118 0248:02B2   119 0248:02CD   120 0248:02F4
   122 0248:0312   123 0248:0342   124 0248:034A   126 0248:0350
   127 0248:0355   128 0248:0395   130 0248:039C   132 0248:03BB
   133 0248:03D4   135 0248:03E2   141 0248:040C   142 0248:041A
   143 0248:042B   144 0248:0446   145 0248:047B   148 0248:0499
   149 0248:04B7   151 0248:04D2   152 0248:04DA   154 0248:04E6
   155 0248:04EB   156 0248:052B   158 0248:0532   164 0248:0536
   165 0248:0544   167 0248:0566   168 0248:056C   169 0248:057B
   170 0248:0595   171 0248:059B   173 0248:059E   174 0248:05BF
   175 0248:05D9   176 0248:05FC   177 0248:0619   179 0248:0674
   180 0248:0676   181 0248:0691   182 0248:0697   183 0248:06A6
   184 0248:06BC   186 0248:06CA   187 0248:06D9   189 0248:06E7
   190 0248:06F0   196 0248:070B   197 0248:071A   198 0248:071E
   199 0248:0736   201 0248:0775   202 0248:07C5   203 0248:07D2
   204 0248:07DB   205 0248:07DD   206 0248:07F0   208 0248:07F9
   209 0248:0804   211 0248:080D   212 0248:0818   215 0248:0821
   216 0248:082C   217 0248:0830   223 0248:084E   224 0248:085D
   225 0248:0875   227 0248:08B3   228 0248:0902   229 0248:090E
   230 0248:0920   231 0248:092A   232 0248:0934   238 0248:09D0
   239 0248:09DF   241 0248:09F0   242 0248:09F6   243 0248:0A0C
   244 0248:0A12   246 0248:0A19   247 0248:0A2A   248 0248:0A38
   249 0248:0A3E   250 0248:0A54   251 0248:0A6B   252 0248:0A7B
   253 0248:0A83   255 0248:0A89   256 0248:0A8F   257 0248:0AB3
   258 0248:0AB9   260 0248:0AC0   261 0248:0AD8   262 0248:0AE9
   263 0248:0B01   264 0248:0B1E   266 0248:0B60   267 0248:0BB5
   269 0248:0BBC   270 0248:0BD2   271 0248:0BE1   277 0248:0C1A
   278 0248:0C28   279 0248:0C30   280 0248:0C3C   282 0248:0C48
   284 0248:0C56   285 0248:0C6D   286 0248:0C7D   287 0248:0C85
   289 0248:0C8B   290 0248:0C98   291 0248:0C9E   292 0248:0CA3
   293 0248:0CC7   294 0248:0CCD   296 0248:0CD4   297 0248:0CEC
   298 0248:0D04   300 0248:0D0D   301 0248:0D21   303 0248:0D39
   304 0248:0D56   312 0248:0D5A   313 0248:0D64   315 0248:0D6E
   316 0248:0D73   318 0248:0D7A   327 0248:0D7E   330 0248:0D8C
   331 0248:0D91   332 0248:0D9F   333 0248:0DA8   335 0248:0DBD
   336 0248:0DCB   337 0248:0DD4   339 0248:0DE9   340 0248:0DF7
   342 0248:0E00   343 0248:0E0C   344 0248:0E21   345 0248:0E2A
   348 0248:0E39   349 0248:0E3E   350 0248:0E4C   352 0248:0E55
   353 0248:0E6A   354 0248:0E79   357 0248:0E7F   358 0248:0E8D
   360 0248:0E99   361 0248:0EAE   362 0248:0EB7   363 0248:0EC5
   364 0248:0ECD   365 0248:0EDB   366 0248:0EE3   367 0248:0EF1
   368 0248:0EF9   369 0248:0F06   370 0248:0F0E   371 0248:0F1A
   372 0248:0F22   373 0248:0F28   377 0248:0F2E   388 0248:0F80
   389 0248:0F8F   390 0248:0FA0   391 0248:0FAE   392 0248:0FC8
   393 0248:0FD1   394 0248:0FF3   395 0248:0FFC   396 0248:100D
   397 0248:1016   398 0248:1038   399 0248:1041   400 0248:1052
   401 0248:105B   402 0248:106C   403 0248:1075   404 0248:1086
   405 0248:108F   406 0248:10A0   407 0248:10A9   408 0248:10BA
   409 0248:10C3   411 0248:10D7   412 0248:10EA   413 0248:10F3
   414 0248:10F6   415 0248:110F   416 0248:1118   417 0248:111B
   418 0248:1157   420 0248:1162   422 0248:116B   423 0248:117C
   424 0248:1185   425 0248:1196   426 0248:119F   429 0248:11C6
   430 0248:11D8   431 0248:11E1   432 0248:11E3   433 0248:11E7
   434 0248:1200   435 0248:121E   437 0248:1227   439 0248:1249
   440 0248:1252   442 0248:1255

Line numbers for Center(CENTER.PAS) segment Center

    35 036E:0000    36 036E:000F    37 036E:0017    38 036E:001C
    39 036E:0022    40 036E:003D    43 036E:0046    44 036E:0059
    45 036E:006D    46 036E:00A1    47 036E:00B5    50 036E:00CB
    51 036E:00DE    61 036E:00E2    62 036E:0108    63 036E:011D
    64 036E:0124    65 036E:0139    67 036E:0140    68 036E:0145
    85 036E:014C    86 036E:015A    87 036E:016B    89 036E:0172
    90 036E:0176    92 036E:0178    93 036E:0182    94 036E:0189
    96 036E:018F    97 036E:0193   107 036E:019A   108 036E:01C0
   109 036E:01D2   110 036E:01EF   111 036E:0217   117 036E:034D
   118 036E:035C   119 036E:0361   120 036E:036B   121 036E:0379
   122 036E:037E   123 036E:0383   125 036E:03D1   126 036E:03D6
   127 036E:03EC   128 036E:0402   129 036E:0424   130 036E:042E
   131 036E:0444   132 036E:045A   133 036E:0470   134 036E:0486
   135 036E:0490   136 036E:04A6   137 036E:04B0   138 036E:04C6
   139 036E:04DC   140 036E:04F2   141 036E:0508   143 036E:050F
   150 036E:0511   151 036E:0520   152 036E:0535   153 036E:054A
   155 036E:0574   156 036E:05A1   161 036E:0664   162 036E:0673
   163 036E:0679   164 036E:0683   166 036E:068C   167 036E:06A2
   169 036E:06A9   171 036E:06B2   172 036E:06C8   174 036E:06CF
   175 036E:06D2   176 036E:06D7   177 036E:06DF   179 036E:06E7
   181 036E:0719   182 036E:071F   183 036E:0724   184 036E:0729
   189 036E:0730   191 036E:0746   192 036E:076E   193 036E:077F
   194 036E:0782   196 036E:0798   197 036E:07C0   198 036E:07D1
   199 036E:07D4   200 036E:0802   203 036E:0815   204 036E:082A
   206 036E:0845   207 036E:0856   208 036E:087C   210 036E:0883
   211 036E:0888   214 036E:088F   215 036E:0892   216 036E:089C
   217 036E:08A4   218 036E:08A9   219 036E:08B5   221 036E:08C1
   222 036E:08CB   223 036E:08D1   224 036E:08D6   225 036E:08DB
   226 036E:08E5   227 036E:08EF   228 036E:08F9   229 036E:08FF
   230 036E:0909   232 036E:091F   233 036E:0924   234 036E:0933
   235 036E:0935   239 036E:0938   240 036E:0942   241 036E:0951
   242 036E:095B

Line numbers for MouseIN(MOUSEIN.PAS) segment MouseIN

    26 0404:0000    27 0404:000E    28 0404:0013    29 0404:002B
    30 0404:002F    32 0404:004A    34 0404:0050    35 0404:0057
    37 0404:005B    38 0404:0073    39 0404:007A    40 0404:009D
    41 0404:00A2    42 0404:00B1    43 0404:00BD    45 0404:0122
    46 0404:012E    48 0404:017A    49 0404:01C4    50 0404:01D0
    52 0404:0224    53 0404:0254    55 0404:026F    56 0404:0282
    57 0404:028E    58 0404:0299    59 0404:02A3    60 0404:02AA
    61 0404:02B9    63 0404:02D4    64 0404:02E7    65 0404:02F3
    66 0404:02FE    67 0404:0308    68 0404:030F    69 0404:031E
    71 0404:032D    72 0404:0332    73 0404:0341    75 0404:0346
    77 0404:035B    78 0404:0360    79 0404:036F    81 0404:0374
    83 0404:0389    84 0404:038E    85 0404:039D    87 0404:03A2
    89 0404:03B1    90 0404:03B6    91 0404:03C5    93 0404:03CA
    95 0404:03D9    96 0404:03DE    97 0404:03ED    99 0404:03F2
   100 0404:03F7   101 0404:03FC

Line numbers for KeyIn(KEYIN.PAS) segment KeyIn

    33 0444:016E    34 0444:0178    35 0444:0189    36 0444:01AB
    37 0444:01B5    38 0444:01CB    39 0444:01D5    40 0444:01EB
    41 0444:01F5    42 0444:020B    43 0444:0221    44 0444:0237
    45 0444:024D    46 0444:0263    47 0444:0268    48 0444:026D
    49 0444:0272    50 0444:0277    55 0444:0320    56 0444:032F
    57 0444:033E    58 0444:034F    60 0444:0358    61 0444:0368
    63 0444:037A    64 0444:037F    65 0444:0385    66 0444:038A
    67 0444:03A0    68 0444:03A5    69 0444:03BF    70 0444:03C4
    71 0444:03CA    72 0444:03CF    73 0444:03D9    74 0444:03DC
    75 0444:0418    76 0444:0453    77 0444:0464    78 0444:0475
    79 0444:0486    80 0444:0497    81 0444:04A8    83 0444:04B7
    84 0444:04C8    85 0444:04D4    87 0444:04DD    88 0444:04ED
    90 0444:04FF    95 0444:0531    96 0444:053B    97 0444:0548
    98 0444:054E    99 0444:0553   100 0444:0560   101 0444:0566
   102 0444:057C   103 0444:0582   104 0444:0598   105 0444:059E
   106 0444:05B1   107 0444:05B7   108 0444:05CD   109 0444:05D3
   110 0444:05E6   111 0444:05EC   112 0444:0602   113 0444:0608
   114 0444:061B   115 0444:0621   116 0444:0637   117 0444:063D
   118 0444:0653   119 0444:0659   120 0444:066F   121 0444:0678
   122 0444:067E   123 0444:0691   124 0444:0697   125 0444:06AD
   126 0444:06BA   131 0444:0704   132 0444:070E   133 0444:071F
   134 0444:072C   135 0444:0732   136 0444:0745   137 0444:074B
   138 0444:0761   139 0444:0767   140 0444:077A   141 0444:0780
   142 0444:0796   143 0444:079C   144 0444:07AF   145 0444:07B5
   146 0444:07CB   147 0444:07D1   148 0444:07E4   149 0444:07EA
   150 0444:0800   151 0444:0806   152 0444:0819   153 0444:081F
   154 0444:0835   155 0444:083B   156 0444:084E   157 0444:0854
   158 0444:086A   163 0444:089B   164 0444:08A5   165 0444:08B6
   166 0444:08C3   167 0444:08C9   168 0444:08DC   169 0444:08E2
   170 0444:08F8   171 0444:08FE   172 0444:0911   173 0444:0917
   174 0444:092D   175 0444:0933   176 0444:0946   177 0444:094C
   178 0444:0962   179 0444:0968   180 0444:097B   181 0444:0981
   182 0444:0997   183 0444:099D   184 0444:09B0   185 0444:09B6
   187 0444:09CC   188 0444:09CF   189 0444:09EC   191 0444:0A07
   196 0444:0A31   197 0444:0A3B   198 0444:0A4C   199 0444:0A59
   200 0444:0A5F   201 0444:0A72   202 0444:0A78   203 0444:0A8E
   204 0444:0A94   205 0444:0AA7   206 0444:0AAD   207 0444:0AC3
   208 0444:0AC9   209 0444:0ADC   210 0444:0AE2   211 0444:0AF8
   212 0444:0AFE   213 0444:0B11   214 0444:0B17   215 0444:0B2D
   220 0444:0B66   221 0444:0B70   222 0444:0B81   223 0444:0B8E
   224 0444:0B94   225 0444:0BA7   226 0444:0BAD   227 0444:0BC3
   228 0444:0BC9   229 0444:0BD2   230 0444:0BD8   231 0444:0BEB
   232 0444:0BF4   233 0444:0BFA   234 0444:0C10   235 0444:0C19
   236 0444:0C1F   237 0444:0C32   238 0444:0C3B   239 0444:0C41
   240 0444:0C57   241 0444:0C60   242 0444:0C66   243 0444:0C79
   244 0444:0C82   245 0444:0C88   247 0444:0C9E   248 0444:0CA4
   249 0444:0CAD   250 0444:0CB3   251 0444:0CC6   252 0444:0CCF
   253 0444:0CD5   254 0444:0CEB   259 0444:0CED   260 0444:0CFB
   261 0444:0D19   266 0444:0D8D   267 0444:0D97   268 0444:0DA8
   269 0444:0DB5   270 0444:0DBB   271 0444:0DCE   272 0444:0DD4
   273 0444:0DEA   274 0444:0DF0   275 0444:0DF9   276 0444:0DFF
   277 0444:0E12   278 0444:0E18   279 0444:0E21   280 0444:0E27
   281 0444:0E3D   282 0444:0E43   283 0444:0E4C   284 0444:0E52
   285 0444:0E65   286 0444:0E6B   287 0444:0E74   288 0444:0E7A
   289 0444:0E90   290 0444:0E96   291 0444:0E9D   292 0444:0EA3
   293 0444:0EB6   294 0444:0EBC   295 0444:0EC3   296 0444:0EC9
   297 0444:0EDF   298 0444:0EE5   299 0444:0EEC   300 0444:0EF2
   301 0444:0F05   302 0444:0F0B   303 0444:0F12   304 0444:0F18
   305 0444:0F2E   306 0444:0F34   307 0444:0F47   308 0444:0F4D
   309 0444:0F60   310 0444:0F66   311 0444:0F7C   312 0444:0F82
   313 0444:0F95   314 0444:0F9B   315 0444:0FB1   320 0444:0FDB
   321 0444:0FE5   322 0444:0FF6   323 0444:1003   324 0444:1009
   325 0444:101C   326 0444:1022   327 0444:1038   328 0444:103E
   329 0444:1051   330 0444:1057   331 0444:106D   332 0444:1073
   333 0444:1086   334 0444:108C   335 0444:10A2   336 0444:10A8
   337 0444:10BB   338 0444:10C1   339 0444:10D7   347 0444:1103
   348 0444:1112   350 0444:1126   351 0444:1137   352 0444:1144
   353 0444:114A   354 0444:115D   355 0444:1163   356 0444:1179
   357 0444:117F   358 0444:1192   359 0444:1198   360 0444:11AE
   361 0444:11B3   362 0444:11BE   363 0444:11C9   364 0444:11D4
   367 0444:11DD   369 0444:11E2   371 0444:11EC   372 0444:120D
   373 0444:1213   374 0444:1226   375 0444:122C   376 0444:1242
   377 0444:1248   378 0444:125B   379 0444:1261   380 0444:1277
   381 0444:1282   382 0444:128D   384 0444:1294   385 0444:129B
   386 0444:12A6   388 0444:12AD   389 0444:12B4   393 0444:12BD
   394 0444:12D1   401 0444:1312   402 0444:1321   403 0444:1335
   405 0444:133A   406 0444:134B   408 0444:1358   409 0444:135E
   410 0444:1371   411 0444:1377   412 0444:138D   413 0444:1393
   414 0444:13A6   415 0444:13AC   416 0444:13C2   417 0444:13C8
   418 0444:13DB   419 0444:13E1   420 0444:13F7   421 0444:13FD
   422 0444:1410   423 0444:1416   424 0444:142C   425 0444:1432
   426 0444:1445   427 0444:144B   428 0444:1461   429 0444:1467
   430 0444:147A   431 0444:1480   433 0444:1496   434 0444:14A1
   435 0444:14AC   436 0444:14B7   437 0444:14C2   438 0444:14CD
   439 0444:14D8   440 0444:14E3   443 0444:14EC   444 0444:1500
   451 0444:151D   452 0444:152C   453 0444:1540   455 0444:1545
   456 0444:1556   458 0444:1563   459 0444:1569   460 0444:157C
   461 0444:1582   462 0444:1598   463 0444:159E   464 0444:15B1
   465 0444:15B7   466 0444:15CD   467 0444:15D3   468 0444:15E6
   469 0444:15EC   471 0444:1602   472 0444:160D   473 0444:1618
   474 0444:1623   475 0444:162E   478 0444:1637   479 0444:164B
   486 0444:16AE   487 0444:16BD   489 0444:16D1   490 0444:16E2
   492 0444:16EF   493 0444:16F5   494 0444:1708   495 0444:170E
   496 0444:1724   497 0444:172A   498 0444:173D   499 0444:1743
   500 0444:1759   501 0444:175F   502 0444:1772   503 0444:1778
   504 0444:178E   505 0444:1794   506 0444:17A7   507 0444:17AD
   508 0444:17C3   509 0444:17C9   510 0444:17DC   511 0444:17E2
   512 0444:17F8   513 0444:17FE   514 0444:1811   515 0444:1817
   516 0444:182D   517 0444:1833   518 0444:1846   519 0444:184C
   520 0444:1862   521 0444:1868   522 0444:187B   523 0444:1881
   524 0444:1897   525 0444:189D   526 0444:18B0   527 0444:18B6
   528 0444:18CC   529 0444:18D2   530 0444:18E5   531 0444:18EB
   532 0444:1901   533 0444:1907   534 0444:191A   535 0444:1920
   536 0444:1936   537 0444:193C   538 0444:194F   539 0444:1955
   540 0444:196B   541 0444:1971   542 0444:1984   543 0444:198A
   544 0444:19A0   545 0444:19A6   546 0444:19B9   547 0444:19BF
   549 0444:19D2   550 0444:19DD   551 0444:19E9   552 0444:19F6
   553 0444:1A03   554 0444:1A10   555 0444:1A1C   556 0444:1A28
   557 0444:1A34   558 0444:1A40   559 0444:1A4C   560 0444:1A58
   561 0444:1A64   562 0444:1A70   563 0444:1A7C   564 0444:1A88
   567 0444:1A91   568 0444:1AA5   575 0444:1B09   576 0444:1B18
   577 0444:1B2C   579 0444:1B31   580 0444:1B42   582 0444:1B4F
   583 0444:1B55   584 0444:1B68   585 0444:1B6E   586 0444:1B84
   587 0444:1B8A   588 0444:1B9D   589 0444:1BA3   590 0444:1BB9
   591 0444:1BBF   592 0444:1BD2   593 0444:1BD8   594 0444:1BEE
   595 0444:1BF4   596 0444:1C07   597 0444:1C0D   598 0444:1C23
   599 0444:1C29   600 0444:1C3C   601 0444:1C42   602 0444:1C58
   603 0444:1C5E   604 0444:1C71   605 0444:1C77   606 0444:1C8D
   607 0444:1C93   608 0444:1CA6   609 0444:1CAC   610 0444:1CC2
   611 0444:1CC8   612 0444:1CDB   613 0444:1CE1   614 0444:1CF7
   615 0444:1CFD   616 0444:1D10   617 0444:1D16   618 0444:1D2C
   619 0444:1D32   620 0444:1D45   621 0444:1D4B   622 0444:1D61
   623 0444:1D67   624 0444:1D7A   625 0444:1D80   626 0444:1D96
   627 0444:1D9C   628 0444:1DAF   629 0444:1DB5   630 0444:1DCB
   631 0444:1DD1   632 0444:1DE4   633 0444:1DEA   634 0444:1E00
   635 0444:1E06   636 0444:1E19   637 0444:1E1F   639 0444:1E35
   640 0444:1E40   641 0444:1E4C   642 0444:1E58   643 0444:1E64
   644 0444:1E70   645 0444:1E7C   646 0444:1E88   647 0444:1E94
   648 0444:1EA0   649 0444:1EAB   650 0444:1EB6   651 0444:1EC1
   652 0444:1ECC   653 0444:1ED7   654 0444:1EE5   656 0444:1F0B
   657 0444:1F10   658 0444:1F24   661 0444:1F26   662 0444:1F3A
   663 0444:1F3F   664 0444:1F49   665 0444:1F4E   676 0444:1F53
   677 0444:1F61   679 0444:1F66   680 0444:1F6C   682 0444:1F72
   683 0444:1F75   684 0444:1F7F   685 0444:1F89   686 0444:1F93
   687 0444:1F9D   688 0444:1FA7   691 0444:1FAF   692 0444:1FB4
   695 0444:1FBA   696 0444:1FC2   697 0444:1FC8   699 0444:1FCD
   700 0444:1FD3   701 0444:1FD8   702 0444:1FE2   703 0444:1FEC
   704 0444:1FF8   705 0444:2004   706 0444:2010   707 0444:201C
   708 0444:202C   710 0444:2036   711 0444:203D   712 0444:2043
   713 0444:204A   715 0444:2050   716 0444:2057   717 0444:2060
   718 0444:206B   719 0444:2076   720 0444:2081   721 0444:208C
   722 0444:2097   725 0444:20A1   726 0444:20A8   727 0444:20B1
   728 0444:20BD   729 0444:20C9   730 0444:20D4   731 0444:20DF
   734 0444:20E8   735 0444:20EF   736 0444:20F8   737 0444:2103
   738 0444:210E   739 0444:2119   742 0444:2122   744 0444:2129
   746 0444:2132   747 0444:213F   748 0444:2144   750 0444:2146
   751 0444:214F   752 0444:215A   753 0444:2165   754 0444:2170
   755 0444:217B   759 0444:2184   761 0444:218B   762 0444:2194
   763 0444:219F   764 0444:21AB   767 0444:21B4   768 0444:21BD
   769 0444:21C6   770 0444:21D1   773 0444:21DA   774 0444:21E1
   775 0444:21EA   776 0444:21F5   780 0444:21FE   781 0444:2205
   782 0444:220E   783 0444:2219   784 0444:2224   785 0444:222F
   787 0444:2238   788 0444:224F   789 0444:2254   791 0444:2259
   792 0444:2268   793 0444:2275   794 0444:227B   799 0444:2282
   800 0444:228C   801 0444:2299   802 0444:229F   803 0444:22A4
   804 0444:22A8   805 0444:22AD   806 0444:22B7   807 0444:22C1
   813 0444:2627   814 0444:2636   815 0444:2643   816 0444:264C
   817 0444:2651   818 0444:2658   819 0444:2661   821 0444:266B
   823 0444:2670   824 0444:2674   825 0444:267D   826 0444:268B
   827 0444:269A   828 0444:26AD   829 0444:26BC   830 0444:26CF
   831 0444:26DE   832 0444:26F1   833 0444:26FA   834 0444:26FF
   836 0444:2701   837 0444:270F   838 0444:2714   840 0444:271D
   841 0444:272C   842 0444:274E   843 0444:2758   844 0444:276E
   845 0444:2784   846 0444:278E   847 0444:27A4   848 0444:27BA
   849 0444:27D0   850 0444:27DA   851 0444:27F0   852 0444:2806
   853 0444:281C   854 0444:2832   855 0444:2848   856 0444:285E
   857 0444:2863   858 0444:2868   860 0444:286D   862 0444:2872
   864 0444:2878   865 0444:2880   866 0444:288E   868 0444:2895
   869 0444:289A   871 0444:28A2   873 0444:28B8   874 0444:28BD
   875 0444:28CB   877 0444:28D4   878 0444:28DE   880 0444:28E1
   881 0444:28E9   883 0444:28F3   884 0444:28F9   886 0444:2904
   887 0444:2909   888 0444:2911   889 0444:2918   890 0444:2922
   892 0444:2924   893 0444:2928   895 0444:292E   896 0444:293E
   897 0444:2946   898 0444:294C   900 0444:2956   901 0444:295C
   903 0444:2967   904 0444:296C   905 0444:2974   906 0444:297B
   907 0444:2985   909 0444:2987   910 0444:298B   912 0444:2991
   913 0444:29A1   914 0444:29A9   915 0444:29AF   917 0444:29B9
   918 0444:29BF   919 0444:29C9   921 0444:29D2   922 0444:29E3
   923 0444:2A07   924 0444:2A2B   925 0444:2A32   927 0444:2AAD
   928 0444:2AC3   929 0444:2B08   930 0444:2B0F   932 0444:2B27
   933 0444:2B3D   934 0444:2B44   936 0444:2B5C   937 0444:2B72
   938 0444:2B77   939 0444:2B7C   940 0444:2B81   942 0444:2B86
   944 0444:2B95   945 0444:2B9A   946 0444:2BBC   948 0444:2BC1
   950 0444:2BD0   951 0444:2BD5   952 0444:2BF7   954 0444:2BFC
   955 0444:2C08   956 0444:2C0C   958 0444:2C15   959 0444:2C26
   960 0444:2C3C   961 0444:2C52   962 0444:2C68   963 0444:2C7E
   964 0444:2C94   965 0444:2CAA   966 0444:2CC0   967 0444:2CD6
   968 0444:2CEC   969 0444:2D02   970 0444:2D18   971 0444:2D2E
   972 0444:2D44   973 0444:2D51   974 0444:2D5A   975 0444:2D63
   976 0444:2D68   977 0444:2D73   978 0444:2D7F   979 0444:2D90
   980 0444:2DB6   981 0444:2DC7   983 0444:2DCB   984 0444:2DD5
   985 0444:2DDA   986 0444:2DE1   987 0444:2DE4   989 0444:2DE8
   990 0444:2DF9   991 0444:2E07   992 0444:2E0A   993 0444:2E30
   994 0444:2E41   996 0444:2E45   997 0444:2E4A   998 0444:2E51
   999 0444:2E54  1000 0444:2E65  1001 0444:2E76  1002 0444:2E87
  1003 0444:2E97  1004 0444:2E9B  1006 0444:2EC5  1007 0444:2EF4
  1008 0444:2F05  1012 0444:2F13  1014 0444:2F19  1015 0444:2F22
  1016 0444:2F29  1017 0444:2F2E  1019 0444:2F3D  1020 0444:2F4C
  1021 0444:2F68  1022 0444:2F77  1023 0444:2F84  1024 0444:2F87
  1025 0444:2F98  1026 0444:2FBB  1027 0444:2FCC  1028 0444:2FDD
  1029 0444:2FF5  1030 0444:3009  1031 0444:301A  1032 0444:302D
  1033 0444:3040  1034 0444:3057  1035 0444:306E  1036 0444:3085
  1037 0444:309C  1038 0444:30B3  1039 0444:30CA  1040 0444:30E1
  1041 0444:30F8  1042 0444:310F  1043 0444:3120  1044 0444:314A
  1045 0444:3174  1046 0444:3184  1047 0444:3194  1048 0444:31AD
  1050 0444:31B6  1052 0444:31BC  1053 0444:31C6  1055 0444:31D0
  1057 0444:31EA  1058 0444:31EF  1060 0444:31F6  1061 0444:31FF
  1063 0444:321D  1064 0444:3222  1065 0444:323B  1066 0444:3254
  1067 0444:326A  1068 0444:3274  1069 0444:327E  1070 0444:3287
  1072 0444:3292  1073 0444:329B  1075 0444:32B8  1076 0444:32D1
  1077 0444:32D8  1078 0444:32F9  1079 0444:3307  1080 0444:3311
  1081 0444:331A  1083 0444:3325  1084 0444:332E  1086 0444:3345
  1087 0444:3362  1088 0444:3369  1089 0444:338A  1090 0444:3398
  1091 0444:33A2  1092 0444:33AB  1094 0444:33B6  1096 0444:33BC
  1097 0444:33C3  1099 0444:33CB  1100 0444:33D0  1102 0444:33DA
  1104 0444:33E9  1105 0444:33F0  1107 0444:33F8  1109 0444:3400
  1111 0444:3422  1112 0444:3425  1113 0444:3433  1114 0444:3441
  1115 0444:344F  1116 0444:345D  1117 0444:346F  1120 0444:347B
  1122 0444:3481  1123 0444:3487  1124 0444:348D  1125 0444:349B
  1130 0444:34A5  1131 0444:34AB  1132 0444:34B5  1133 0444:34BB
  1134 0444:34CB  1135 0444:34D7  1136 0444:34E1  1137 0444:34E7
  1138 0444:3500  1139 0444:3506  1140 0444:351F  1141 0444:3525
  1142 0444:352E  1143 0444:3534  1144 0444:3543  1147 0444:3551
  1148 0444:355B  1149 0444:356A  1150 0444:3576  1152 0444:357D
  1154 0444:3583  1155 0444:3592  1158 0444:35A4  1159 0444:35AE
  1160 0444:35BD  1161 0444:35DB  1164 0444:35E2  1165 0444:35E8
  1166 0444:35EF  1168 0444:35F7  1169 0444:35FC  1170 0444:3602
  1171 0444:361B  1172 0444:3621  1173 0444:363A  1174 0444:3640
  1175 0444:3644  1177 0444:364A  1178 0444:365B  1179 0444:3689
  1180 0444:368E  1182 0444:3694  1183 0444:36A1  1186 0444:36AB
  1187 0444:36B1  1188 0444:36BB  1190 0444:36C1  1191 0444:36CB
  1192 0444:36CF  1194 0444:36D4  1196 0444:36DA  1197 0444:36E4
  1198 0444:36EC  1200 0444:36F3  1202 0444:36FF  1203 0444:3702
  1204 0444:371B  1206 0444:3732  1207 0444:373E  1208 0444:3749
  1209 0444:3755  1210 0444:3760  1212 0444:376A  1214 0444:3770
  1216 0444:377E  1217 0444:3783  1218 0444:37AD  1219 0444:37B2
  1220 0444:37C0  1221 0444:37CA  1223 0444:37D4  1225 0444:37DE
  1227 0444:37E7  1229 0444:3802  1231 0444:380E  1233 0444:3825
  1234 0444:3834  1236 0444:3845  1237 0444:3857  1238 0444:385C
  1239 0444:3887  1240 0444:388C  1241 0444:3897  1244 0444:38A2
  1247 0444:38A4  1248 0444:38B3  1249 0444:38E2  1253 0444:38ED
  1255 0444:38F3  1257 0444:3901  1258 0444:392F  1259 0444:393D
  1261 0444:3947  1263 0444:3951  1265 0444:395A  1267 0444:3975
  1269 0444:3981  1271 0444:3992  1272 0444:39A1  1274 0444:39B2
  1275 0444:39C4  1276 0444:39F3  1279 0444:39FE  1282 0444:3A00
  1283 0444:3A2F  1284 0444:3A3E  1288 0444:3A49  1290 0444:3A4D
  1294 0444:3A51  1295 0444:3A5B  1296 0444:3A61

Line numbers for View2(VIEW2.PAS) segment View2

    47 07EB:0000    48 07EB:000E    49 07EB:0022    50 07EB:0033
    51 07EB:0041    52 07EB:0056    53 07EB:0064    54 07EB:0079
    55 07EB:0087    56 07EB:009C    57 07EB:00A6    58 07EB:00AD
    59 07EB:00C2    60 07EB:00C9    61 07EB:00DD    62 07EB:00E4
    63 07EB:00F8    64 07EB:0101    65 07EB:0108    66 07EB:011C
    67 07EB:0123    68 07EB:0137    69 07EB:013E    70 07EB:0150
    71 07EB:015C    77 07EB:0166    78 07EB:018C    79 07EB:0192
    81 07EB:01AF    82 07EB:01BA    83 07EB:01C2    84 07EB:01CD
    86 07EB:01D5    87 07EB:01F4    88 07EB:01FE    93 07EB:0247
    94 07EB:0251    95 07EB:0258    96 07EB:025A    97 07EB:0260
    98 07EB:0276    99 07EB:027C   100 07EB:0281   101 07EB:0289
   102 07EB:0298   103 07EB:02A6   108 07EB:0395   109 07EB:039F
   110 07EB:03A6   111 07EB:03A9   112 07EB:03AF   113 07EB:03C5
   114 07EB:03CB   115 07EB:03D0   116 07EB:03D8   117 07EB:03E0
   118 07EB:03E8   119 07EB:03F0   120 07EB:03FF   121 07EB:040E
   122 07EB:0415   123 07EB:041F   124 07EB:0426   125 07EB:0430
   126 07EB:0437   128 07EB:0441   129 07EB:0449   130 07EB:044E
   131 07EB:045D   132 07EB:046B   137 07EB:0518   138 07EB:0522
   139 07EB:0527   140 07EB:053D   141 07EB:0543   143 07EB:0548
   144 07EB:0550   146 07EB:0558   147 07EB:055D   148 07EB:056C
   149 07EB:057A   154 07EB:059E   155 07EB:05A8   156 07EB:05AD
   157 07EB:05C3   158 07EB:05C9   160 07EB:05CE   161 07EB:05D6
   163 07EB:05DE   164 07EB:05E3   165 07EB:05F2   166 07EB:0600
   173 07EB:0602   175 07EB:0610   176 07EB:061F   177 07EB:0625
   179 07EB:062A   180 07EB:0630   181 07EB:0640   182 07EB:0658
   183 07EB:066F   184 07EB:068F   186 07EB:06A7   187 07EB:06BE
   188 07EB:06C4   190 07EB:06C9   192 07EB:06CC   194 07EB:06DB
   195 07EB:06E5   202 07EB:06F1   203 07EB:0700   204 07EB:070F
   205 07EB:0720   206 07EB:073C   207 07EB:074B   214 07EB:0757
   215 07EB:0766   216 07EB:0775   217 07EB:0786   218 07EB:07A2
   219 07EB:07B1   220 07EB:07C0   231 07EB:07C2   232 07EB:07D1
   233 07EB:07E1   235 07EB:07EB   236 07EB:081B   238 07EB:0823
   239 07EB:0829   240 07EB:0841   242 07EB:0874   243 07EB:0879
   244 07EB:0882   245 07EB:088F   246 07EB:0895   248 07EB:089F
   249 07EB:08CF   251 07EB:08D7   252 07EB:08DD   253 07EB:08F5
   255 07EB:092A   256 07EB:092F   257 07EB:0938   258 07EB:0945
   259 07EB:094B   261 07EB:0955   262 07EB:0985   264 07EB:098D
   265 07EB:0993   266 07EB:09AB   268 07EB:09D8   269 07EB:09DD
   270 07EB:09E6   271 07EB:09F3   272 07EB:09F9   274 07EB:0A03
   275 07EB:0A33   277 07EB:0A3B   278 07EB:0A41   279 07EB:0A59
   280 07EB:0A71   282 07EB:0A90   284 07EB:0AAA   285 07EB:0AAF
   286 07EB:0AB8   287 07EB:0ABE   292 07EB:0AC2   293 07EB:0ACC
   294 07EB:0AD3   295 07EB:0AD9   296 07EB:0AE8   297 07EB:0AEE
   299 07EB:0AF5   300 07EB:0B00   302 07EB:0B18   303 07EB:0B37
   304 07EB:0B42   305 07EB:0B5A   306 07EB:0B69   313 07EB:0BBC
   314 07EB:0BCB   315 07EB:0BD4   316 07EB:0BDA   317 07EB:0BE7
   318 07EB:0C6B   319 07EB:0CED   320 07EB:0CF2   321 07EB:0D01
   322 07EB:0D18   323 07EB:0D6D   324 07EB:0D7C   325 07EB:0D8B
   326 07EB:0D92   327 07EB:0D9C   328 07EB:0DA3   329 07EB:0DAD
   330 07EB:0DB4   332 07EB:0DBE   333 07EB:0DC6   334 07EB:0DCB
   335 07EB:0DD9   340 07EB:0E2C   341 07EB:0E3B   342 07EB:0E44
   343 07EB:0E4A   344 07EB:0ECE   345 07EB:0F50   346 07EB:0F5F
   347 07EB:0F66   348 07EB:0F70   349 07EB:0F77   350 07EB:0F81
   351 07EB:0F88   353 07EB:0F92   354 07EB:0F9A   355 07EB:0F9F
   364 07EB:0FA5   365 07EB:0FB4   367 07EB:0FBD   368 07EB:0FC8
   369 07EB:0FCB   370 07EB:0FD1   371 07EB:0FD6   372 07EB:0FDC
   373 07EB:0FE1   374 07EB:0FE7   375 07EB:0FEC   376 07EB:0FF2
   377 07EB:0FF7   378 07EB:1008   379 07EB:100B   380 07EB:1038
   382 07EB:105D   384 07EB:1060   386 07EB:1069   388 07EB:106F
   389 07EB:1074   390 07EB:1076   392 07EB:107C   393 07EB:1081
   394 07EB:1084   395 07EB:1086   397 07EB:108C   398 07EB:1091
   399 07EB:1093   401 07EB:1099   402 07EB:109E   404 07EB:10A1
   405 07EB:10CD   406 07EB:10DB   408 07EB:10FC   409 07EB:1126
   411 07EB:1129   413 07EB:1132   414 07EB:1138   415 07EB:113F
   416 07EB:1145   417 07EB:114C   418 07EB:1152   420 07EB:1159
   421 07EB:115E   422 07EB:1161   423 07EB:116E   424 07EB:117A
   425 07EB:1186   426 07EB:1192   427 07EB:119E   428 07EB:11AA
   429 07EB:11B6   430 07EB:11C2   431 07EB:11CE   432 07EB:11DA
   433 07EB:11E6   435 07EB:11F0   436 07EB:11FC   437 07EB:11FF
   438 07EB:121F   439 07EB:1222   440 07EB:1240   441 07EB:125E
   443 07EB:127A   444 07EB:12A2   446 07EB:12E9   460 07EB:12ED
   461 07EB:12FB   462 07EB:1300   463 07EB:1318   465 07EB:132E
   466 07EB:133D   467 07EB:1342   469 07EB:1345   471 07EB:135B
   472 07EB:136A   473 07EB:136F   475 07EB:1372   478 07EB:139A
   480 07EB:13AF   481 07EB:13B5   482 07EB:13BC   483 07EB:13D1
   484 07EB:13D5   485 07EB:13DD   487 07EB:13EB   488 07EB:13F7
   489 07EB:1403   490 07EB:1412   492 07EB:1415   494 07EB:1440
   495 07EB:1446   496 07EB:144D   497 07EB:1462   498 07EB:1466
   500 07EB:147A   501 07EB:1486   502 07EB:1491   504 07EB:1497
   505 07EB:14A4   506 07EB:14C2   507 07EB:14D1   509 07EB:14DB
   511 07EB:14E1   512 07EB:14EE   514 07EB:14F5   515 07EB:14FB
   516 07EB:1501   517 07EB:1510   518 07EB:1516   519 07EB:152B
   520 07EB:152F   521 07EB:1537   522 07EB:1545   523 07EB:1559
   525 07EB:156B   526 07EB:157E   527 07EB:158E   530 07EB:1590
   531 07EB:15A3   533 07EB:15B3   534 07EB:15BB   535 07EB:15CC
   536 07EB:15E2   537 07EB:15FB   538 07EB:161D   539 07EB:162E
   540 07EB:163C   541 07EB:164E   543 07EB:1651   546 07EB:1670
   547 07EB:167D   548 07EB:169B   549 07EB:16AA   551 07EB:16B4
   552 07EB:16BC   553 07EB:16CD   554 07EB:16E3   555 07EB:16FC
   556 07EB:171E   557 07EB:172F   558 07EB:173D   559 07EB:174F
   561 07EB:1752   564 07EB:1774   565 07EB:1781   567 07EB:1788
   568 07EB:1790   569 07EB:17A1   570 07EB:17B7   571 07EB:17D0
   572 07EB:17F2   573 07EB:1803   574 07EB:1811   575 07EB:1823
   577 07EB:1826   580 07EB:1845   581 07EB:1857   582 07EB:1875
   583 07EB:1884   585 07EB:188E   586 07EB:1896   587 07EB:18A7
   588 07EB:18BD   589 07EB:18D6   590 07EB:18F8   591 07EB:1909
   592 07EB:1917   593 07EB:1929   595 07EB:192C   598 07EB:194E
   599 07EB:1960   601 07EB:1967   602 07EB:196F   603 07EB:1980
   604 07EB:1996   605 07EB:19AF   606 07EB:19D1   607 07EB:19E2
   608 07EB:19F0   609 07EB:1A02   611 07EB:1A05   614 07EB:1A30
   616 07EB:1A45   617 07EB:1A7D   619 07EB:1A84   620 07EB:1A8C
   621 07EB:1A9D   622 07EB:1AB3   623 07EB:1ACC   624 07EB:1AEE
   625 07EB:1AFF   627 07EB:1B0D   628 07EB:1B19   629 07EB:1B2B
   631 07EB:1B2D   632 07EB:1B37   634 07EB:1B48   635 07EB:1B52
   637 07EB:1B63   638 07EB:1B6D   640 07EB:1B7E   641 07EB:1B83
   646 07EB:1B8A   647 07EB:1B94   648 07EB:1BA3   649 07EB:1BA8
   650 07EB:1BAB   651 07EB:1BC7   661 07EB:1C85   662 07EB:1C94
   663 07EB:1C9A   664 07EB:1CA0   665 07EB:1CA3   666 07EB:1CA9
   668 07EB:1CAE   669 07EB:1CB1   671 07EB:1CD3   672 07EB:1CDB
   673 07EB:1CEC   674 07EB:1D02   675 07EB:1D1B   676 07EB:1D2A
   677 07EB:1D3B   679 07EB:1D49   681 07EB:1D4D   683 07EB:1D57
   684 07EB:1D5C   686 07EB:1D61   687 07EB:1D65   688 07EB:1D6A
   689 07EB:1D73   690 07EB:1D7B   691 07EB:1D8A   692 07EB:1D9B
   693 07EB:1DAA   694 07EB:1DBB   695 07EB:1DCA   696 07EB:1DDB
   697 07EB:1DE0   698 07EB:1DE6   699 07EB:1DEA   700 07EB:1DF0
   701 07EB:1DF4   703 07EB:1DFE   704 07EB:1E06   705 07EB:1E0F
   706 07EB:1E14   707 07EB:1E1D   709 07EB:1E22   711 07EB:1E25
   712 07EB:1E2E   713 07EB:1E33   714 07EB:1E38   717 07EB:1E3A
   719 07EB:1E3F   721 07EB:1E49   722 07EB:1E51   723 07EB:1E5A
   724 07EB:1E5F   725 07EB:1E68   727 07EB:1E6D   729 07EB:1E70
   730 07EB:1E79   731 07EB:1E81   733 07EB:1E86   735 07EB:1E92
   737 07EB:1EB0   738 07EB:1ED9   739 07EB:1EDD   741 07EB:1EE4
   742 07EB:1EEA   744 07EB:1EEE   745 07EB:1F03   746 07EB:1F07
   748 07EB:1F11   751 07EB:1F13   752 07EB:1F19   753 07EB:1F1E
   754 07EB:1F24   755 07EB:1F29   756 07EB:1F2F   757 07EB:1F35
   758 07EB:1F3B   760 07EB:1F41   762 07EB:1F4D   763 07EB:1F5D
   764 07EB:1F65   765 07EB:1F6B   767 07EB:1F75   769 07EB:1F81
   770 07EB:1F91   771 07EB:1F99   772 07EB:1F9F   774 07EB:1FA9
   776 07EB:1FB2   777 07EB:1FC3   778 07EB:1FEC   779 07EB:2015
   780 07EB:201F   782 07EB:209F   783 07EB:20BA   784 07EB:2104
   785 07EB:2133   786 07EB:2138   787 07EB:213D   788 07EB:2142
   790 07EB:2147   792 07EB:2156   793 07EB:215B   794 07EB:217D
   796 07EB:2182   798 07EB:2188   799 07EB:2192   801 07EB:21B4
   803 07EB:21BA   804 07EB:21C4   806 07EB:21E6   807 07EB:21EC
   808 07EB:21F1   810 07EB:21F7   811 07EB:2203   813 07EB:2225
   814 07EB:222B   815 07EB:222F   817 07EB:2235   818 07EB:2241
   820 07EB:2263   822 07EB:2269   823 07EB:2273   825 07EB:2295
   827 07EB:229B   828 07EB:22AE   830 07EB:22D0   832 07EB:22D9
   833 07EB:22EA   834 07EB:2300   835 07EB:2303   836 07EB:230C
   837 07EB:230F   838 07EB:231A   839 07EB:2326   840 07EB:2337
   841 07EB:235D   842 07EB:236E   844 07EB:2372   845 07EB:237C
   846 07EB:2381   847 07EB:2388   848 07EB:238B   850 07EB:238F
   851 07EB:23A0   852 07EB:23AE   853 07EB:23B1   854 07EB:23D7
   855 07EB:23E8   857 07EB:23F0   858 07EB:23F5   860 07EB:23FC
   861 07EB:240B   862 07EB:2410   864 07EB:2415   865 07EB:241C
   866 07EB:241F   867 07EB:2430   868 07EB:2441   869 07EB:2452
   870 07EB:2462   871 07EB:2466   873 07EB:2490   874 07EB:24BF
   875 07EB:24D0   878 07EB:24DE   879 07EB:24EF   881 07EB:250E
   883 07EB:2528   884 07EB:252D   886 07EB:2534   887 07EB:2543
   888 07EB:2548   890 07EB:254D   892 07EB:2554   893 07EB:255A
   894 07EB:2561   895 07EB:2569   896 07EB:2570   897 07EB:2578
   898 07EB:257F   901 07EB:2587   902 07EB:258D   904 07EB:2591
   905 07EB:259A   906 07EB:259F   907 07EB:25A3   909 07EB:25AA
   910 07EB:25AE   911 07EB:25B4   912 07EB:25B6   913 07EB:25BD
   914 07EB:25C5   915 07EB:25CC   917 07EB:25D4   918 07EB:25DD
   919 07EB:25E8   921 07EB:25EC   922 07EB:25F0   923 07EB:2605
   924 07EB:2609   925 07EB:260C   927 07EB:2610   928 07EB:2614
   929 07EB:2629   930 07EB:262D   932 07EB:2630   933 07EB:263B
   934 07EB:263F   935 07EB:264C   937 07EB:2650   938 07EB:2660
   939 07EB:2682   940 07EB:2685   942 07EB:268D   943 07EB:2697
   944 07EB:26B9   945 07EB:26BC   946 07EB:26C0   947 07EB:26CD
   948 07EB:26D1   949 07EB:26D9   951 07EB:26DD   952 07EB:26EE
   953 07EB:271C   954 07EB:2721   956 07EB:2727   957 07EB:2734
   959 07EB:273E   960 07EB:2740   961 07EB:2744   962 07EB:2750
   963 07EB:2754   964 07EB:275A   966 07EB:275E   967 07EB:2768
   968 07EB:2770   971 07EB:2777   973 07EB:277E   974 07EB:278B
   975 07EB:27A9   976 07EB:27B8   977 07EB:27BE   978 07EB:27C8
   980 07EB:27EA   982 07EB:27F4   983 07EB:2801   984 07EB:2808
   985 07EB:280F   987 07EB:2831   989 07EB:285C   990 07EB:2860
   992 07EB:2867   993 07EB:286D   995 07EB:2871   996 07EB:2873
   997 07EB:287A   998 07EB:2880   999 07EB:2887  1000 07EB:288D
  1002 07EB:2896  1003 07EB:289B  1004 07EB:289E  1006 07EB:28B7
  1008 07EB:28BE  1009 07EB:28CD  1010 07EB:28D2  1013 07EB:28D7
  1014 07EB:28E1  1018 07EB:28E5  1019 07EB:28EF  1020 07EB:28F5
  1021 07EB:28FB  1022 07EB:2906

Line numbers for Color(COLOR.PAS) segment Color

   216 0A7C:0000   217 0A7C:0030   218 0A7C:004E   219 0A7C:0053
   220 0A7C:0066   221 0A7C:0072   222 0A7C:008C   223 0A7C:009F
   225 0A7C:00AB   226 0A7C:00BE   227 0A7C:00CB   228 0A7C:00DE
   229 0A7C:00E5   230 0A7C:00F8   231 0A7C:0104   232 0A7C:011E
   234 0A7C:0131   235 0A7C:014E   236 0A7C:015A   238 0A7C:0166
   239 0A7C:0182   240 0A7C:01A5   241 0A7C:01B3   242 0A7C:01C0
   247 0A7C:01E4   248 0A7C:01EE   249 0A7C:01FF   250 0A7C:0208
   251 0A7C:020E   252 0A7C:0224   253 0A7C:022D   254 0A7C:0233
   255 0A7C:0249   262 0A7C:035F   263 0A7C:036D   264 0A7C:037A
   266 0A7C:0384   267 0A7C:0389   268 0A7C:0391   269 0A7C:0396
   270 0A7C:03B1   271 0A7C:03B6   272 0A7C:03C0   273 0A7C:03C6
   274 0A7C:03D3   275 0A7C:03DC   276 0A7C:03E1   277 0A7C:03E4
   278 0A7C:0402   279 0A7C:041F   280 0A7C:043C   281 0A7C:0459
   282 0A7C:0476   284 0A7C:0491   285 0A7C:0496   292 0A7C:0911
   293 0A7C:091F   294 0A7C:092C   296 0A7C:0936   297 0A7C:093B
   298 0A7C:0943   299 0A7C:0948   300 0A7C:0963   301 0A7C:0968
   302 0A7C:0972   303 0A7C:0978   304 0A7C:0985   305 0A7C:098E
   306 0A7C:0993   307 0A7C:0996   308 0A7C:09B4   309 0A7C:09D2
   310 0A7C:09F0   311 0A7C:0A0E   312 0A7C:0A2C   313 0A7C:0A4A
   314 0A7C:0A68   315 0A7C:0A86   316 0A7C:0AA4   317 0A7C:0AC2
   318 0A7C:0AE0   319 0A7C:0AFE   320 0A7C:0B1C   321 0A7C:0B3A
   322 0A7C:0B58   323 0A7C:0B76   324 0A7C:0B93   325 0A7C:0BB0
   326 0A7C:0BCD   327 0A7C:0BEA   329 0A7C:0C05   330 0A7C:0C0A
   337 0A7C:0C18   338 0A7C:0C27   339 0A7C:0C46   340 0A7C:0C52
   341 0A7C:0C5B   343 0A7C:0C5D   345 0A7C:0C6F   346 0A7C:0C79
   353 0A7C:0C85   354 0A7C:0C94   355 0A7C:0CB3   356 0A7C:0CBD
   358 0A7C:0CC6   365 0A7C:0CC8   366 0A7C:0CD6   368 0A7C:0CE3
   370 0A7C:0CE8   371 0A7C:0CF1   372 0A7C:0CF6   373 0A7C:0D06
   374 0A7C:0D0C   376 0A7C:0D21   378 0A7C:0D34   379 0A7C:0D3D
   380 0A7C:0D42   381 0A7C:0D55   382 0A7C:0D5B   384 0A7C:0D70
   386 0A7C:0D83   387 0A7C:0D90   392 0A7C:0D94   393 0A7C:0D9E
   394 0A7C:0DBA   395 0A7C:0DBD   400 0A7C:0DC1   401 0A7C:0DCB
   402 0A7C:0DE7   403 0A7C:0DEA   408 0A7C:0DEE   409 0A7C:0DF8
   410 0A7C:0E16   411 0A7C:0E19   416 0A7C:0E1D   417 0A7C:0E27
   418 0A7C:0E45   419 0A7C:0E48   428 0A7C:0E9B   430 0A7C:0EA9
   431 0A7C:0EB2   432 0A7C:0EB7   433 0A7C:0ECD   434 0A7C:0ED2
   435 0A7C:0EE8   436 0A7C:0EED   437 0A7C:0F03   438 0A7C:0F08
   439 0A7C:0F1E   440 0A7C:0F23   441 0A7C:0F39   442 0A7C:0F3E
   443 0A7C:0F54   445 0A7C:0F59   446 0A7C:0F66   447 0A7C:0F6F
   449 0A7C:0F79   450 0A7C:0F7F   451 0A7C:0F92   452 0A7C:0F98
   453 0A7C:0FA1   455 0A7C:0FAB   456 0A7C:0FB4   457 0A7C:0FC7
   458 0A7C:0FCD   460 0A7C:0FDA   462 0A7C:0FDF   463 0A7C:0FE5
   464 0A7C:0FF4   466 0A7C:0FFC   467 0A7C:1002   469 0A7C:100E
   470 0A7C:1014   471 0A7C:1019   472 0A7C:1022   473 0A7C:102B
   474 0A7C:102F   475 0A7C:1035   477 0A7C:1043   478 0A7C:1051
   479 0A7C:1055   480 0A7C:105B   482 0A7C:1069   485 0A7C:1075
   486 0A7C:107B   487 0A7C:1080   488 0A7C:1086   490 0A7C:108B
   492 0A7C:10A3   493 0A7C:10B0   494 0A7C:10B5   495 0A7C:10BA
   496 0A7C:10C7   497 0A7C:10CC   498 0A7C:10D9   503 0A7C:1129
   504 0A7C:1133   505 0A7C:113C   506 0A7C:1141   507 0A7C:1157
   508 0A7C:115C   509 0A7C:1172   510 0A7C:1177   511 0A7C:118D
   512 0A7C:1192   513 0A7C:11A8   514 0A7C:11AD   515 0A7C:11C3
   516 0A7C:11C8   517 0A7C:11DE   518 0A7C:11E3   519 0A7C:11F9
   520 0A7C:11FE   521 0A7C:1214   522 0A7C:1219   530 0A7C:121B
   531 0A7C:1229   533 0A7C:122E   535 0A7C:1231   536 0A7C:123E
   537 0A7C:1243   539 0A7C:1248   541 0A7C:124B   543 0A7C:124E
   545 0A7C:1253   546 0A7C:1259   548 0A7C:1261   549 0A7C:1267
   550 0A7C:126C   551 0A7C:1275   554 0A7C:127C   555 0A7C:1282
   556 0A7C:1287   557 0A7C:128D   559 0A7C:1292   561 0A7C:129E
   562 0A7C:12A1   563 0A7C:12B9   564 0A7C:12D1   565 0A7C:12E9
   567 0A7C:12FF   568 0A7C:1302   569 0A7C:1308   571 0A7C:130D
   574 0A7C:1310   576 0A7C:131C   577 0A7C:131F   578 0A7C:1322
   581 0A7C:1325   583 0A7C:133D   584 0A7C:1344   585 0A7C:134B
   586 0A7C:1352   587 0A7C:1357   588 0A7C:135C   595 0A7C:136A
   596 0A7C:1379   597 0A7C:13A2   598 0A7C:13AE   600 0A7C:13B7
   601 0A7C:13C8   604 0A7C:13CA   606 0A7C:13DC   607 0A7C:13E6
   611 0A7C:13E8   612 0A7C:13F2   613 0A7C:13F5

Line numbers for PrintU(PRINTU.PAS) segment PrintU

    31 0BBC:0004    32 0BBC:0013    33 0BBC:0017    34 0BBC:0020
    36 0BBC:0048    37 0BBC:006E    38 0BBC:0077    40 0BBC:009F
    41 0BBC:00C5    42 0BBC:00CE    44 0BBC:00F6    45 0BBC:011C
    46 0BBC:0125    48 0BBC:014D    49 0BBC:0173    50 0BBC:017C
    52 0BBC:01A4    53 0BBC:01CA    54 0BBC:01D3    56 0BBC:01FB
    57 0BBC:0221    58 0BBC:022A    60 0BBC:0252    61 0BBC:0278
    62 0BBC:0281    64 0BBC:02A9    65 0BBC:02CF    66 0BBC:02E0
    82 0BBC:0365    83 0BBC:0374    85 0BBC:0385    86 0BBC:038A
    87 0BBC:0394    89 0BBC:0397    90 0BBC:03A5    91 0BBC:03B4
    92 0BBC:03D0    94 0BBC:03EB    95 0BBC:0419    97 0BBC:0487
    98 0BBC:0491    99 0BBC:04AA   100 0BBC:04B4   102 0BBC:04BE
   103 0BBC:04C8   104 0BBC:0507   105 0BBC:0511   106 0BBC:055C
   107 0BBC:0566   108 0BBC:05A0   109 0BBC:05AA   110 0BBC:05C1
   112 0BBC:05E9   113 0BBC:0602   114 0BBC:060C   116 0BBC:0615
   117 0BBC:061E   118 0BBC:062C   127 0BBC:0682   128 0BBC:0691
   129 0BBC:06A2   130 0BBC:06B8   131 0BBC:06CE   132 0BBC:06F3
   134 0BBC:06F8   135 0BBC:06FF   137 0BBC:0702   138 0BBC:0713
   140 0BBC:071E   141 0BBC:072F   142 0BBC:075A   143 0BBC:0785
   144 0BBC:07D3   146 0BBC:0810   148 0BBC:0815   149 0BBC:0820

Line numbers for BinEd(BINED.PAS) segment BinEd

    29 0C3F:0003    30 0C3F:0012    31 0C3F:001D    33 0C3F:0027
    34 0C3F:002F    35 0C3F:0035    36 0C3F:0043    38 0C3F:0058
    39 0C3F:006B    40 0C3F:0073    41 0C3F:0079    42 0C3F:007F
    43 0C3F:0095    44 0C3F:009A    45 0C3F:00D5    46 0C3F:00DB
    48 0C3F:00F2    49 0C3F:0105    55 0C3F:0109    56 0C3F:012F
    57 0C3F:013C    58 0C3F:0142    60 0C3F:0162    62 0C3F:018E
    63 0C3F:0194    64 0C3F:01AE    66 0C3F:01DA    67 0C3F:01E0
    68 0C3F:01ED    77 0C3F:0268    78 0C3F:0276    79 0C3F:027B
    80 0C3F:0284    81 0C3F:0289    82 0C3F:0292    83 0C3F:0298
    84 0C3F:029D    85 0C3F:02AA    86 0C3F:02AF    87 0C3F:02BB
    88 0C3F:02C7    90 0C3F:02D4    91 0C3F:02E3    92 0C3F:02EF
    93 0C3F:02FD    95 0C3F:0303    96 0C3F:0310    97 0C3F:031A
    99 0C3F:0324   100 0C3F:032A   101 0C3F:0330   102 0C3F:0336
   103 0C3F:033C   104 0C3F:0342   105 0C3F:034D   106 0C3F:0353
   107 0C3F:0360   108 0C3F:0366   109 0C3F:0373   110 0C3F:0379
   111 0C3F:0386   112 0C3F:038C   113 0C3F:039D   115 0C3F:03B1
   116 0C3F:03C4   117 0C3F:03D0   118 0C3F:03DD   119 0C3F:03E9
   120 0C3F:03F6   122 0C3F:03FC   123 0C3F:0404   124 0C3F:040A
   125 0C3F:0411   126 0C3F:0417   127 0C3F:041E   128 0C3F:0424
   129 0C3F:0429   130 0C3F:042F   132 0C3F:0434   133 0C3F:0443
   135 0C3F:0449   136 0C3F:0452   137 0C3F:045C   139 0C3F:045E
   140 0C3F:0467   141 0C3F:0474   142 0C3F:0479   143 0C3F:047F
   144 0C3F:0484   145 0C3F:0491   146 0C3F:0496   150 0C3F:049A
   151 0C3F:04A4   152 0C3F:04A9

Line numbers for Search(SEARCH.PAS) segment Search

    27 0C8A:0003    28 0C8A:0012    29 0C8A:001B    30 0C8A:0020
    32 0C8A:0038    33 0C8A:0042    34 0C8A:0048    35 0C8A:0066
    36 0C8A:0070    37 0C8A:0076    38 0C8A:007E    39 0C8A:0088
    40 0C8A:008D    42 0C8A:00A5    43 0C8A:00AF    44 0C8A:00B5
    45 0C8A:00CB    46 0C8A:00F1    47 0C8A:00FB    48 0C8A:0101
    49 0C8A:0109    54 0C8A:012B    55 0C8A:013A    56 0C8A:013F
    57 0C8A:0145    58 0C8A:015B    59 0C8A:0171    60 0C8A:01A7
    66 0C8A:01AB    67 0C8A:01D1    68 0C8A:01D7    70 0C8A:01F4
    71 0C8A:0230    72 0C8A:0236    73 0C8A:0254    74 0C8A:0290
    75 0C8A:0296    76 0C8A:02A3    82 0C8A:031C    84 0C8A:032A
    85 0C8A:032D    86 0C8A:0337    87 0C8A:033F    88 0C8A:0349
    89 0C8A:0351    90 0C8A:0356    91 0C8A:035E    92 0C8A:0363
    93 0C8A:036F    94 0C8A:0378    95 0C8A:0384    96 0C8A:038D
    97 0C8A:0394    98 0C8A:0399    99 0C8A:03A0   100 0C8A:03A5
   101 0C8A:03AE   102 0C8A:03B4   104 0C8A:03BA   105 0C8A:03C2
   106 0C8A:03C8   107 0C8A:03D1   108 0C8A:03D7   109 0C8A:03E0
   110 0C8A:03E6   111 0C8A:03F6   112 0C8A:03FD   113 0C8A:0402
   114 0C8A:040B   116 0C8A:0411   117 0C8A:0420   118 0C8A:0426
   120 0C8A:042C   121 0C8A:0430   122 0C8A:0435   128 0C8A:043A
   129 0C8A:0448   130 0C8A:044C   131 0C8A:047A   132 0C8A:04B0
   133 0C8A:04C4   139 0C8A:04CB   140 0C8A:04D9   141 0C8A:04DD
   142 0C8A:050B   143 0C8A:0546   144 0C8A:055A   150 0C8A:0564
   151 0C8A:0573   153 0C8A:058C   154 0C8A:05D4   156 0C8A:060D
   157 0C8A:0628   158 0C8A:062B   159 0C8A:063B   162 0C8A:063E
   163 0C8A:064F   164 0C8A:0694   166 0C8A:06D9   168 0C8A:06F4
   169 0C8A:06FD   170 0C8A:0738   171 0C8A:0741   173 0C8A:077D
   175 0C8A:07B5   176 0C8A:07D6   177 0C8A:07DB   179 0C8A:07DD
   181 0C8A:07E6   182 0C8A:07EB   184 0C8A:07ED   185 0C8A:0803
   187 0C8A:0808   197 0C8A:0814   198 0C8A:0823   200 0C8A:0847
   201 0C8A:084F   204 0C8A:0852   205 0C8A:085A   207 0C8A:0868
   208 0C8A:088D   210 0C8A:08A8   211 0C8A:08B9   213 0C8A:090A
   214 0C8A:090F   216 0C8A:0930   217 0C8A:094B   218 0C8A:0954
   219 0C8A:098F   220 0C8A:0998   222 0C8A:09D4   223 0C8A:09ED
   225 0C8A:0A02   226 0C8A:0A06   227 0C8A:0A1F   228 0C8A:0A3C
   229 0C8A:0A48   231 0C8A:0A4E   232 0C8A:0A6E   233 0C8A:0A7C
   234 0C8A:0A81   235 0C8A:0A86   237 0C8A:0A88   239 0C8A:0A93
   240 0C8A:0A9E   241 0C8A:0AA1   243 0C8A:0AA6   245 0C8A:0AAB
   246 0C8A:0AB9   251 0C8A:0ABD   252 0C8A:0AC7   253 0C8A:0AD8
   254 0C8A:0ADF   255 0C8A:0AE8

Line numbers for Second(SECOND.PAS) segment Second

    28 0D39:0088    29 0D39:00B3    30 0D39:00C0    31 0D39:00C6
    32 0D39:00CB    33 0D39:00D0    35 0D39:00D9    36 0D39:00E6
    37 0D39:00F5    38 0D39:00F8    39 0D39:0107    40 0D39:0119
    41 0D39:0129    42 0D39:0131    44 0D39:0134    46 0D39:0145
    47 0D39:014F    49 0D39:0152    50 0D39:0161    51 0D39:0173
    52 0D39:0185    53 0D39:018A    54 0D39:0190    56 0D39:01BD
    57 0D39:01D3    58 0D39:01E9    59 0D39:01EE    61 0D39:01FF
    62 0D39:0209    63 0D39:0219    64 0D39:0221    66 0D39:0224
    67 0D39:022F    69 0D39:0233    70 0D39:0249    71 0D39:0262
    72 0D39:0273    73 0D39:0277    74 0D39:0291    76 0D39:02A0
    77 0D39:02B2    78 0D39:02C4    79 0D39:02DD    80 0D39:02EE
    81 0D39:02F6    83 0D39:02FC    84 0D39:0329    85 0D39:033B
    86 0D39:034B    87 0D39:0353    89 0D39:0356    90 0D39:0371
    92 0D39:0392    93 0D39:03BE    94 0D39:03CE    95 0D39:03D6
    97 0D39:03DC    98 0D39:0409    99 0D39:0416   100 0D39:0428
   101 0D39:0438   102 0D39:0440   104 0D39:0442   105 0D39:044B
   106 0D39:0466   107 0D39:047D   108 0D39:048F   109 0D39:04A1
   110 0D39:04AC   111 0D39:04B7   118 0D39:0515   119 0D39:0524
   120 0D39:052D   121 0D39:0530   122 0D39:0544   123 0D39:0557
   124 0D39:056A   125 0D39:057D   127 0D39:058F   128 0D39:05AF
   129 0D39:05BC   130 0D39:05C5   131 0D39:05CC   132 0D39:05CF
   133 0D39:05E6   134 0D39:05EF   136 0D39:05F6   137 0D39:0600
   138 0D39:0605   140 0D39:0608   142 0D39:0613   144 0D39:062B
   145 0D39:0638   146 0D39:0641   148 0D39:0648   149 0D39:0652
   151 0D39:0655   152 0D39:066B   154 0D39:0672   155 0D39:067C
   157 0D39:067E   159 0D39:0689   161 0D39:0694   162 0D39:069D
   163 0D39:06B0   164 0D39:06C5   165 0D39:06D7   166 0D39:06DE
   174 0D39:0712   175 0D39:0721   176 0D39:072A   177 0D39:072D
   178 0D39:0737   179 0D39:0748   180 0D39:0758   181 0D39:0774
   182 0D39:078C   183 0D39:079B   185 0D39:07AB   186 0D39:07BC
   187 0D39:07C5   189 0D39:0808   190 0D39:080D   193 0D39:0842
   194 0D39:084B   195 0D39:089A   197 0D39:08FF   198 0D39:0909
   199 0D39:0914   200 0D39:091E   202 0D39:0941   203 0D39:0951
   204 0D39:0956   205 0D39:095B   206 0D39:095E   208 0D39:0964
   209 0D39:0987   210 0D39:099F   211 0D39:09AE   213 0D39:09BE
   215 0D39:09C1   217 0D39:09C6   218 0D39:09D7   219 0D39:09E7
   221 0D39:09EE   222 0D39:09F7   224 0D39:09FC   226 0D39:0A01

Line numbers for WTD(WTD.PAS) segment WTD

    29 0DDA:0038    30 0DDA:0047    31 0DDA:0060    33 0DDA:0080
    34 0DDA:008A    36 0DDA:008D    37 0DDA:00A8    38 0DDA:00B4
    40 0DDA:00C8    41 0DDA:00DF    42 0DDA:00F9    43 0DDA:0105
    44 0DDA:011E    46 0DDA:013F    47 0DDA:014B    49 0DDA:0161
    50 0DDA:0182    51 0DDA:0184    52 0DDA:0196    53 0DDA:0199
    54 0DDA:01A3    60 0DDA:01AD    61 0DDA:01BB    62 0DDA:01BF
    63 0DDA:01CA    64 0DDA:01DF    65 0DDA:01EA    66 0DDA:01FD
    68 0DDA:0203    69 0DDA:020B    71 0DDA:020E    73 0DDA:0219
    74 0DDA:0231    75 0DDA:024E    76 0DDA:0271    78 0DDA:0273
    79 0DDA:028B    80 0DDA:02A8    81 0DDA:02CB    82 0DDA:02D8
    90 0DDA:0325    91 0DDA:0334    92 0DDA:0344    93 0DDA:03B6
    94 0DDA:03F8    95 0DDA:03FB    96 0DDA:042C    97 0DDA:045D
    98 0DDA:048E    99 0DDA:04BF   100 0DDA:04F0   101 0DDA:0521
   102 0DDA:0552   103 0DDA:0583   104 0DDA:05B4   105 0DDA:05E4
   106 0DDA:0614   108 0DDA:0642   110 0DDA:067A   111 0DDA:068D
   122 0DDA:2636   123 0DDA:265A   125 0DDA:2664   126 0DDA:2673
   127 0DDA:2683   128 0DDA:2695   129 0DDA:269E   130 0DDA:26A4
   131 0DDA:26BA   132 0DDA:26C0   133 0DDA:26DC   134 0DDA:26E2
   135 0DDA:26F8   136 0DDA:26FE   137 0DDA:2719   138 0DDA:271F
   139 0DDA:2735   140 0DDA:273B   141 0DDA:2757   142 0DDA:275D
   143 0DDA:2773   144 0DDA:2779   145 0DDA:2794   147 0DDA:27AC
   148 0DDA:27D3   149 0DDA:27D9   150 0DDA:27EF   151 0DDA:27F5
   152 0DDA:2810   154 0DDA:2828   155 0DDA:284F   156 0DDA:2855
   157 0DDA:286B   158 0DDA:2871   159 0DDA:288C   161 0DDA:28A4
   162 0DDA:28BF   163 0DDA:28C5   164 0DDA:28DB   165 0DDA:28E1
   166 0DDA:28FC   168 0DDA:2914   169 0DDA:292F   170 0DDA:2935
   171 0DDA:294B   172 0DDA:2951   173 0DDA:296C   175 0DDA:2984
   177 0DDA:299F   179 0DDA:29AD   180 0DDA:29C4   183 0DDA:29C9
   184 0DDA:29CF   185 0DDA:29D4   186 0DDA:29DA   187 0DDA:29DD
   188 0DDA:29FA   189 0DDA:2A17   191 0DDA:2A34   193 0DDA:2A4D
   195 0DDA:2A56   196 0DDA:2A70   197 0DDA:2A86   198 0DDA:2AA6
   199 0DDA:2ABC   200 0DDA:2ADC   201 0DDA:2AF2   202 0DDA:2B1D
   203 0DDA:2B33   204 0DDA:2B36   206 0DDA:2B3F   207 0DDA:2B4D
   208 0DDA:2B6B   209 0DDA:2B89   210 0DDA:2BA7   211 0DDA:2BC5
   212 0DDA:2BE8   213 0DDA:2C0B   214 0DDA:2C2E   215 0DDA:2C51
   216 0DDA:2C74   217 0DDA:2C96   218 0DDA:2CB3   219 0DDA:2CD0
   220 0DDA:2CF2   222 0DDA:2D12   223 0DDA:2D46   224 0DDA:2D5F
   225 0DDA:2D93   226 0DDA:2DAC   228 0DDA:2DDC   229 0DDA:2DFD
   231 0DDA:2E15   232 0DDA:2E2B   233 0DDA:2E2E   234 0DDA:2E67
   235 0DDA:2E7F   236 0DDA:2EC3   237 0DDA:2ED9   238 0DDA:2EDC
   240 0DDA:2EE5   241 0DDA:2EF9   242 0DDA:2F26   243 0DDA:2F49
   244 0DDA:2F6C   245 0DDA:2F8F   246 0DDA:2FB2   247 0DDA:2FD5
   248 0DDA:2FF8   249 0DDA:301A   250 0DDA:303C   251 0DDA:305E
   253 0DDA:307E   254 0DDA:3094   255 0DDA:30C8   256 0DDA:30DE
   258 0DDA:30FE   260 0DDA:3106   261 0DDA:3115   262 0DDA:312C
   265 0DDA:312E   266 0DDA:313E   268 0DDA:3151   271 0DDA:31A9
   272 0DDA:31BF   274 0DDA:3240   275 0DDA:3242   276 0DDA:3264
   278 0DDA:327C   280 0DDA:3292   281 0DDA:3295   283 0DDA:329E
   284 0DDA:32B4   285 0DDA:32C2   286 0DDA:32EF   287 0DDA:330D
   288 0DDA:332B   289 0DDA:3349   290 0DDA:3367   291 0DDA:3385
   292 0DDA:33A3   293 0DDA:33C0   294 0DDA:33DD   295 0DDA:33FA
   296 0DDA:3417   298 0DDA:3432   299 0DDA:3466   300 0DDA:347E
   301 0DDA:34B2   302 0DDA:34CA   303 0DDA:34E4   304 0DDA:34FA
   305 0DDA:34FD   307 0DDA:3506   308 0DDA:350B   309 0DDA:3521
   310 0DDA:353B   311 0DDA:3551   312 0DDA:355F   313 0DDA:3582
   314 0DDA:35A5   315 0DDA:35AD   316 0DDA:35EF   317 0DDA:35FD
   319 0DDA:3615   320 0DDA:362B   321 0DDA:3641   322 0DDA:3643
   323 0DDA:3660   325 0DDA:367B   326 0DDA:36C4   327 0DDA:36DC
   328 0DDA:3712   329 0DDA:372A   330 0DDA:3744   331 0DDA:375A
   332 0DDA:375D   334 0DDA:3766   335 0DDA:377C   336 0DDA:3781
   337 0DDA:379B   338 0DDA:37B1   339 0DDA:37BF   340 0DDA:37E1
   341 0DDA:3803   343 0DDA:3823   345 0DDA:3857   346 0DDA:386E
   347 0DDA:388D   348 0DDA:3896   349 0DDA:389B   350 0DDA:389F
   351 0DDA:38BC   352 0DDA:38D9   353 0DDA:38F6   354 0DDA:3913
   355 0DDA:3930   356 0DDA:394C   357 0DDA:3968   358 0DDA:3984
   359 0DDA:39A0   361 0DDA:39BA   362 0DDA:39C1   363 0DDA:39D7
   364 0DDA:39F9   365 0DDA:3A0F   366 0DDA:3A5C   367 0DDA:3A81
   368 0DDA:3AB0   369 0DDA:3AC6   370 0DDA:3AF5   371 0DDA:3B0B
   374 0DDA:3B9E   375 0DDA:3BB4   376 0DDA:3C0B   377 0DDA:3C21
   378 0DDA:3C50   379 0DDA:3C66   380 0DDA:3CBD   381 0DDA:3CD3
   382 0DDA:3D04   383 0DDA:3D1A   384 0DDA:3D71   385 0DDA:3D87
   386 0DDA:3DDE   387 0DDA:3DF4   388 0DDA:3E23   389 0DDA:3E39
   390 0DDA:3E68   391 0DDA:3E7E   392 0DDA:3ED9   393 0DDA:3EEF
   394 0DDA:3F1E   395 0DDA:3F34   396 0DDA:3F63   397 0DDA:3F79
   398 0DDA:3FD0   399 0DDA:3FE6   400 0DDA:4041   401 0DDA:4057
   403 0DDA:4065   404 0DDA:4072   405 0DDA:4077   408 0DDA:408D
   409 0DDA:4090   411 0DDA:4099   412 0DDA:409E   413 0DDA:40AC
   414 0DDA:40CF   415 0DDA:40F2   416 0DDA:4115   417 0DDA:4138
   418 0DDA:415A   419 0DDA:417C   420 0DDA:419E   422 0DDA:41BE
   424 0DDA:41EE   425 0DDA:41F9   427 0DDA:4211   428 0DDA:4227
   429 0DDA:4229   430 0DDA:4243   431 0DDA:4259   432 0DDA:425C
   434 0DDA:4265   435 0DDA:426F   436 0DDA:4289   437 0DDA:42A2
   439 0DDA:42C2   440 0DDA:42D8   441 0DDA:4309   442 0DDA:4355
   443 0DDA:4365   444 0DDA:437E   445 0DDA:4394   447 0DDA:441E
   448 0DDA:4431   450 0DDA:44A7   451 0DDA:44B7   452 0DDA:44D0
   453 0DDA:44E0   454 0DDA:44F9   455 0DDA:450F   457 0DDA:4599
   458 0DDA:45AC   460 0DDA:4622   461 0DDA:4638   463 0DDA:46C2
   464 0DDA:46D2   467 0DDA:4747   468 0DDA:475D   469 0DDA:4760
   470 0DDA:477A   471 0DDA:4793   472 0DDA:47AD   473 0DDA:47C6
   474 0DDA:47E0   476 0DDA:483F   477 0DDA:4859   478 0DDA:4872
   480 0DDA:48B3   482 0DDA:495C   483 0DDA:49AE   484 0DDA:49CB
   485 0DDA:49E8   486 0DDA:4A05   488 0DDA:4A20   490 0DDA:4A22
   491 0DDA:4A38   492 0DDA:4A61   493 0DDA:4A82   494 0DDA:4A8C
   498 0DDA:4A8F   500 0DDA:4A98   501 0DDA:4AA2   502 0DDA:4ABC
   503 0DDA:4AD5   505 0DDA:4AF5   506 0DDA:4B0B   507 0DDA:4B3C
   508 0DDA:4B88   509 0DDA:4B98   510 0DDA:4BB1   511 0DDA:4BC7
   513 0DDA:4C51   514 0DDA:4C64   516 0DDA:4CDA   517 0DDA:4CEA
   518 0DDA:4D03   519 0DDA:4D13   520 0DDA:4D2C   521 0DDA:4D42
   523 0DDA:4DCC   524 0DDA:4DDF   526 0DDA:4E55   527 0DDA:4E6B
   529 0DDA:4EF5   530 0DDA:4F05   533 0DDA:4F7A   534 0DDA:4F90
   535 0DDA:4F93   536 0DDA:4FAD   537 0DDA:4FC6   538 0DDA:4FE0
   539 0DDA:4FF9   540 0DDA:5013   542 0DDA:5072   544 0DDA:50B3
   546 0DDA:515C   547 0DDA:51AE   548 0DDA:51CB   549 0DDA:51E8
   550 0DDA:5205   552 0DDA:5220   554 0DDA:5222   555 0DDA:5238
   556 0DDA:5242   560 0DDA:5245   562 0DDA:524E   563 0DDA:5268
   564 0DDA:5281   566 0DDA:52A1   567 0DDA:52DE   568 0DDA:5300
   569 0DDA:531E   570 0DDA:533C   571 0DDA:535A   572 0DDA:5378
   573 0DDA:5396   574 0DDA:53B4   575 0DDA:53D2   576 0DDA:53F0
   577 0DDA:540D   578 0DDA:542A   579 0DDA:5447   580 0DDA:5460
   582 0DDA:5476   583 0DDA:5478   584 0DDA:5492   587 0DDA:54DD
   588 0DDA:54F3   589 0DDA:54F6   591 0DDA:54FF   592 0DDA:5509
   593 0DDA:550D   594 0DDA:553A   595 0DDA:555D   596 0DDA:5580
   597 0DDA:55A3   598 0DDA:55C6   599 0DDA:55E9   600 0DDA:560B
   601 0DDA:562D   602 0DDA:5655   604 0DDA:566B   605 0DDA:568C
   606 0DDA:56A2   607 0DDA:56B3   608 0DDA:56C9   609 0DDA:56D3
   610 0DDA:56D6   612 0DDA:56DF   613 0DDA:56ED   614 0DDA:5715
   615 0DDA:574E   616 0DDA:5796   617 0DDA:57D5   619 0DDA:5812
   620 0DDA:582A   621 0DDA:583B   622 0DDA:5853   623 0DDA:5864
   625 0DDA:587C   626 0DDA:5892   627 0DDA:58C6   628 0DDA:58DC
   629 0DDA:5910   630 0DDA:5926   631 0DDA:593E   632 0DDA:5954
   633 0DDA:5988   634 0DDA:599E   635 0DDA:59B8   636 0DDA:59CE
   637 0DDA:59D1   639 0DDA:59DA   640 0DDA:59E4   641 0DDA:59FE
   642 0DDA:5A05   643 0DDA:5A22   645 0DDA:5A3F   647 0DDA:5A58
   648 0DDA:5A78   649 0DDA:5A86   650 0DDA:5AA9   651 0DDA:5ACC
   652 0DDA:5AEF   653 0DDA:5B12   654 0DDA:5B35   655 0DDA:5B58
   656 0DDA:5B7B   657 0DDA:5B9E   658 0DDA:5BC0   659 0DDA:5BD4
   660 0DDA:5BEC   661 0DDA:5C0E   663 0DDA:5C31   665 0DDA:5C7C
   666 0DDA:5CCF   668 0DDA:5CEF   669 0DDA:5CF8   671 0DDA:5D01
   672 0DDA:5D17   673 0DDA:5D37   674 0DDA:5D45   675 0DDA:5D71
   676 0DDA:5D93   678 0DDA:5DBF   680 0DDA:5DD5   681 0DDA:5DD8
   683 0DDA:5DE1   684 0DDA:5DF7   685 0DDA:5E05   686 0DDA:5E23
   687 0DDA:5E41   688 0DDA:5E5F   689 0DDA:5EE5   690 0DDA:5F02
   692 0DDA:5F1D   693 0DDA:5F20   695 0DDA:5F26   696 0DDA:5F3C
   697 0DDA:5F70   698 0DDA:5F86   699 0DDA:5F89   701 0DDA:5F8F
   702 0DDA:5FA5   703 0DDA:5FD9   704 0DDA:5FEF   705 0DDA:5FF2
   707 0DDA:5FF8   708 0DDA:600E   709 0DDA:6042   710 0DDA:6058
   711 0DDA:605B   713 0DDA:6064   714 0DDA:607A   715 0DDA:60AE
   716 0DDA:60C4   717 0DDA:60F8   718 0DDA:610E   719 0DDA:6111
   721 0DDA:611A   722 0DDA:6130   723 0DDA:6164   724 0DDA:617A
   725 0DDA:61AE   726 0DDA:61C4   727 0DDA:61C6   729 0DDA:61CC
   730 0DDA:61E2   731 0DDA:61F0   732 0DDA:6212   736 0DDA:622D
   737 0DDA:6237   739 0DDA:6239   740 0DDA:624F

Line numbers for Res(RES.PAS) segment Res

    26 1400:000A    27 1400:0019    28 1400:0042    30 1400:0056
    31 1400:005A    34 1400:005C    35 1400:0061    36 1400:0077
    38 1400:008D    39 1400:00C5    40 1400:00C9    42 1400:00CB
    43 1400:00D9    47 1400:00DE    48 1400:00E8    49 1400:00EE

Line numbers for Help(HELP.PAS) segment Help

    30 140F:0000    31 140F:000E    32 140F:0014    33 140F:0021
    34 140F:0034    35 140F:003E    36 140F:0057    37 140F:006A
    39 140F:0074    40 140F:0087    41 140F:0091    42 140F:00AA
    43 140F:00BD    44 140F:00C3    45 140F:00D6    46 140F:00E0
    47 140F:00F9    48 140F:010C    49 140F:0119    55 140F:0151
    56 140F:0160    57 140F:0164    58 140F:0175    59 140F:0178
    60 140F:018A    61 140F:019D    63 140F:01AF    64 140F:01D9
    65 140F:01E4    67 140F:01F0    68 140F:01F9    69 140F:020C
    71 140F:0230    72 140F:026C    74 140F:026F    75 140F:027B
    76 140F:02A1    77 140F:02B9    78 140F:02BF    80 140F:02D5
    81 140F:02FA    82 140F:0303    83 140F:0305    85 140F:0310
    87 140F:0314    88 140F:0318    89 140F:0323    95 140F:032A
    96 140F:0338    97 140F:0344    98 140F:034E    99 140F:0351
   100 140F:035E   101 140F:0364   102 140F:0371   103 140F:0376
   104 140F:039F   106 140F:03A5   107 140F:03C8   108 140F:03CD
   109 140F:03D7   110 140F:03DE   111 140F:03E6   112 140F:03F3

Line numbers for UModify(UMODIFY.PAS) segment UModify

    46 144F:0005    47 144F:0014    49 144F:001E    51 144F:0026
    52 144F:0038    54 144F:003B    55 144F:005A    56 144F:005F
    57 144F:0069    58 144F:007A    59 144F:0081    61 144F:0095
    62 144F:00BD    64 144F:00BF    65 144F:00DD    77 144F:00E1
    78 144F:0113    79 144F:0121    81 144F:0135    82 144F:014A
    83 144F:015F    84 144F:0177    86 144F:0193    88 144F:019A
    89 144F:01A0    91 144F:01A6    92 144F:01C2    93 144F:01C7
    94 144F:01E3    95 144F:01FA    97 144F:0206    98 144F:0211
   100 144F:0218   101 144F:021D   102 144F:0226   103 144F:022F
   104 144F:0248   106 144F:0253   107 144F:025E   108 144F:0272
   109 144F:0294   110 144F:0298   113 144F:029A   114 144F:02A6
   115 144F:02AA   116 144F:02C1   118 144F:02C5   120 144F:02D3
   121 144F:02E6   123 144F:02EA   124 144F:02F1   125 144F:02F6
   126 144F:0300   127 144F:030A   129 144F:031F   130 144F:032C
   131 144F:0337   132 144F:033E   133 144F:0344   135 144F:0355
   137 144F:035C   138 144F:036F   139 144F:0374   142 144F:0376
   143 144F:0389   145 144F:038E   146 144F:0395   147 144F:039C
   148 144F:03A3   149 144F:03A8   155 144F:03CB   156 144F:03DA
   157 144F:03EB   158 144F:042D   159 144F:0443   160 144F:0472
   161 144F:0477   163 144F:0483   164 144F:048A   166 144F:0494
   172 144F:04B7   173 144F:04C5   174 144F:04D6   175 144F:0518
   176 144F:052E   177 144F:0536   178 144F:053F   179 144F:0544
   180 144F:054E   186 144F:0586   187 144F:0595   188 144F:05AA
   189 144F:05BB   190 144F:05E9   191 144F:05FF   192 144F:0625
   194 144F:062A   195 144F:0631   197 144F:0633   198 144F:0646
   199 144F:064F   201 144F:065B   202 144F:0670   209 144F:0694
   210 144F:06A3   211 144F:06B4   212 144F:06CA   213 144F:06E0
   214 144F:070F   215 144F:0714   216 144F:0731   217 144F:073B
   225 144F:0788   226 144F:0797   227 144F:07A8   228 144F:07BE
   229 144F:07D4   231 144F:07F5   232 144F:0802   234 144F:080A
   235 144F:080F   237 144F:0812   238 144F:0817   239 144F:0846
   240 144F:085C   241 144F:087A   242 144F:087F   243 144F:0893
   249 144F:0919   250 144F:0927   252 144F:0931   253 144F:0935
   255 144F:0938   256 144F:0949   257 144F:094F   258 144F:0965
   259 144F:096B   260 144F:0981   261 144F:0987   262 144F:099D
   263 144F:09A3   264 144F:09B9   265 144F:09BF   266 144F:09D5
   267 144F:09DB   268 144F:09F1   269 144F:09F7   270 144F:0A0D
   272 144F:0A12   273 144F:0A20   274 144F:0A2F   275 144F:0A34
   276 144F:0A37   277 144F:0A3B   278 144F:0A45   279 144F:0A49
   280 144F:0A4B   281 144F:0A55   283 144F:0A5D   284 144F:0A62
   290 144F:0A69   291 144F:0A77   293 144F:0A90   294 144F:0ACF
   295 144F:0B06   296 144F:0B13   297 144F:0B1A   299 144F:0B1C
   300 144F:0B3C   308 144F:0B5B   309 144F:0B6A   310 144F:0B94
   311 144F:0BA5   312 144F:0BE2   313 144F:0BF8   314 144F:0C24
   315 144F:0C29   317 144F:0C34   318 144F:0C3D   320 144F:0C47
   328 144F:0C76   329 144F:0C85   330 144F:0CAF   331 144F:0CC0
   332 144F:0D26   333 144F:0D3C   334 144F:0D6B   335 144F:0D70
   337 144F:0D84   338 144F:0D94   340 144F:0D9E   353 144F:0DAA
   355 144F:0DB9   356 144F:0DCA   358 144F:0DCD   359 144F:0DD5
   361 144F:0DE3   362 144F:0E08   364 144F:0E23   365 144F:0E34
   367 144F:0E85   368 144F:0E8A   370 144F:0EAB   371 144F:0EC6
   372 144F:0ECF   373 144F:0F0A   374 144F:0F13   376 144F:0F4F
   377 144F:0F68   379 144F:0F7D   380 144F:0F81   381 144F:0F99
   382 144F:0FB6   383 144F:0FC2   385 144F:0FC8   386 144F:0FE8
   387 144F:0FF6   388 144F:0FFB   389 144F:1000   391 144F:1002
   393 144F:100D   394 144F:1018   395 144F:101B   397 144F:1020
   399 144F:1025   400 144F:1033   406 144F:104F   407 144F:105E
   409 144F:1064   410 144F:1075   411 144F:108B   412 144F:10A1
   413 144F:10C3   415 144F:10C8   417 144F:10E1   418 144F:110E
   420 144F:113B   421 144F:1156   422 144F:1158   423 144F:1164
   425 144F:1166   426 144F:116E   432 144F:120D   433 144F:121B
   435 144F:1225   436 144F:1229   438 144F:122C   439 144F:123D
   440 144F:1253   441 144F:1259   442 144F:126F   443 144F:1275
   444 144F:128B   445 144F:1291   446 144F:12A7   447 144F:12AD
   448 144F:12C3   449 144F:12C9   450 144F:12DF   451 144F:12E5
   452 144F:12FB   454 144F:1300   455 144F:130E   456 144F:131D
   457 144F:1322   458 144F:1325   459 144F:1329   460 144F:1333
   461 144F:1337   462 144F:1339   463 144F:1343   465 144F:134B
   466 144F:1350   471 144F:137F   472 144F:138E   473 144F:139F
   474 144F:13B5   475 144F:13CB   476 144F:13E9   477 144F:13EE
   483 144F:140F   484 144F:141E   485 144F:142F   486 144F:1445
   487 144F:145B   488 144F:147F   490 144F:148C   491 144F:14A9
   492 144F:14DB   494 144F:14F6   496 144F:1503   497 144F:1520
   499 144F:1552   501 144F:155F   502 144F:157B   504 144F:15A7
   505 144F:15AC   511 144F:1666   512 144F:1675   513 144F:1686
   514 144F:169C   515 144F:16B2   516 144F:16DA   518 144F:16E7
   519 144F:16EE   521 144F:16F1   522 144F:16F7   523 144F:16FC
   524 144F:170D   525 144F:171A   527 144F:1723   528 144F:1739
   530 144F:1748   531 144F:174D   533 144F:1750   535 144F:1755
   536 144F:175A   537 144F:1767   538 144F:1770   540 144F:1777
   541 144F:1781   543 144F:1784   545 144F:1797   546 144F:17A1
   547 144F:17AC   548 144F:17B7   550 144F:17BA   551 144F:17CC
   553 144F:17DE   554 144F:17FC   555 144F:1819   557 144F:1823
   558 144F:182D   559 144F:1838   560 144F:1843   561 144F:1852
   563 144F:1854   564 144F:1857   565 144F:1866   566 144F:1871
   567 144F:187F   568 144F:1895   569 144F:18A9   570 144F:18B9
   571 144F:18C3   572 144F:18CD

Line numbers for GShift(GSHIFT.PAS) segment GShift

    31 15DD:0000    33 15DD:000E    34 15DD:0010    35 15DD:0012
    37 15DD:0015    38 15DD:001B

Line numbers for Block(BLOCK.PAS) segment Block

    31 15DF:0031    32 15DF:0040    33 15DF:004A    34 15DF:005B
    36 15DF:00D6    37 15DF:00DE    39 15DF:012B    40 15DF:0134
    43 15DF:020B    44 15DF:0246    46 15DF:0252    47 15DF:026F
    48 15DF:029B    49 15DF:02B9    51 15DF:02C1    52 15DF:02C6
    53 15DF:02D0    54 15DF:02DA    57 15DF:02DC    58 15DF:02EE
    59 15DF:02F1    60 15DF:031B    61 15DF:0329    62 15DF:0342
    63 15DF:0347    64 15DF:0351    72 15DF:037C    73 15DF:038B
    74 15DF:03A1    75 15DF:03A4    76 15DF:03B5    77 15DF:03CB
    78 15DF:03E1    79 15DF:0403    80 15DF:0409    81 15DF:040E
    82 15DF:0416    83 15DF:0419    84 15DF:0457    85 15DF:0491
    86 15DF:04A2    87 15DF:04D2    88 15DF:051D    89 15DF:0528
    95 15DF:052C    96 15DF:053A    97 15DF:0555    99 15DF:055B
   100 15DF:055F   102 15DF:0568   103 15DF:05B8   104 15DF:05BB
   105 15DF:05C5   106 15DF:05E8   107 15DF:0611   108 15DF:062A
   109 15DF:0632   110 15DF:0646   112 15DF:065A   113 15DF:0660
   115 15DF:0693   116 15DF:06C6   117 15DF:06E2   119 15DF:06EB
   120 15DF:0716   121 15DF:0732   123 15DF:073B   124 15DF:074D
   127 15DF:0750   128 15DF:0756   130 15DF:0789   131 15DF:07BC
   132 15DF:07D9   134 15DF:07E2   135 15DF:080D   136 15DF:082A
   138 15DF:0833   139 15DF:0845   141 15DF:0848   142 15DF:0861
   143 15DF:087B   144 15DF:088D   145 15DF:08A5   147 15DF:08AF
   153 15DF:08B3   154 15DF:08C1   155 15DF:08CB   157 15DF:093F
   158 15DF:0942   159 15DF:0955   160 15DF:0975   161 15DF:097B
   162 15DF:099C   163 15DF:09AE   164 15DF:09C1   166 15DF:09E2
   167 15DF:09F5   168 15DF:0A05   170 15DF:0A13   171 15DF:0A1D
   172 15DF:0A27   182 15DF:0A69   183 15DF:0A78   184 15DF:0AA2
   186 15DF:0AA5   187 15DF:0AB6   188 15DF:0ACC   189 15DF:0AE2
   190 15DF:0B07   191 15DF:0B0C   192 15DF:0B13   194 15DF:0B16
   196 15DF:0B29   197 15DF:0B33   200 15DF:0B36   201 15DF:0B47
   202 15DF:0B54   204 15DF:0B5D   205 15DF:0B70   207 15DF:0B73
   208 15DF:0B98   209 15DF:0BB8   210 15DF:0BCE   212 15DF:0BDE
   213 15DF:0BFE   214 15DF:0C1B   215 15DF:0C39   218 15DF:0C3B
   219 15DF:0C59   220 15DF:0C76   221 15DF:0C94   222 15DF:0C97
   224 15DF:0CA2   225 15DF:0CB1   234 15DF:0CE2   235 15DF:0CF1
   236 15DF:0D02   237 15DF:0D18   238 15DF:0D2E   239 15DF:0D53
   241 15DF:0D58   242 15DF:0D5F   244 15DF:0D62   245 15DF:0D6C
   246 15DF:0D7D   247 15DF:0D8A   248 15DF:0DA9   249 15DF:0DE1
   250 15DF:0E0B   251 15DF:0E36   253 15DF:0E45   254 15DF:0E60
   255 15DF:0E80   256 15DF:0E82   257 15DF:0E8D   258 15DF:0E97

Line numbers for LowInt(LOWINT.PAS) segment LowInt

    30 16C9:001E    31 16C9:002C    32 16C9:0034    34 16C9:003E
    35 16C9:0046    36 16C9:007E    38 16C9:0088    40 16C9:00B0
    41 16C9:00D6    42 16C9:00F3    43 16C9:011F    44 16C9:013D
    46 16C9:0145    47 16C9:014F    49 16C9:0152    51 16C9:015D
    52 16C9:0170    53 16C9:0184    54 16C9:0198    56 16C9:01A6
    57 16C9:01C2    59 16C9:01CB    60 16C9:01DD    63 16C9:01DF
    64 16C9:01FC    66 16C9:0205    67 16C9:0217    69 16C9:021A
    70 16C9:0224    71 16C9:023D    78 16C9:0241    79 16C9:024F
    81 16C9:0268    82 16C9:02A7    83 16C9:02DE    84 16C9:0333
    85 16C9:0355    86 16C9:036E    87 16C9:0375    89 16C9:0377
    90 16C9:039E    96 16C9:03A2    97 16C9:03C8    98 16C9:03CC
    99 16C9:0403   100 16C9:0431   101 16C9:0447   102 16C9:044B

Line numbers for PCX(PCX.PAS) segment PCX

    39 170F:0000    40 170F:000E    41 170F:002E    43 170F:0034
    44 170F:0038    49 170F:00AC    50 170F:00DE    53 170F:00E5
    54 170F:00EC    55 170F:00FE    56 170F:0105    57 170F:0117
    58 170F:011E    59 170F:0130    60 170F:0139    62 170F:0171
    65 170F:01D2    73 170F:01D6    74 170F:01E0    75 170F:0202
    76 170F:020E    83 170F:0231    84 170F:0240    85 170F:0252
    86 170F:0262    87 170F:0283    89 170F:028A    90 170F:029D
    92 170F:02A0    93 170F:02AF    96 170F:02C3    97 170F:02D1
    99 170F:02DA   100 170F:02E4   101 170F:02F2   103 170F:0302
   104 170F:0318   105 170F:031B   106 170F:0321   109 170F:0323
   110 170F:0339   112 170F:033C   113 170F:035D   114 170F:0364
   115 170F:036E   117 170F:0377   118 170F:037E   120 170F:0381
   121 170F:03A2   122 170F:03B0   123 170F:03B9   124 170F:03C3
   126 170F:03D9   127 170F:03E7   128 170F:03F6   129 170F:0404
   130 170F:0414   131 170F:0422   132 170F:0432   133 170F:0439
   134 170F:0440

Line numbers for GIF(GIF.PAS) segment GIF

    52 1754:003F    53 1754:0062    54 1754:0069    56 1754:00BF
    58 1754:00D1    59 1754:00E8    61 1754:00EF    63 1754:0101
    64 1754:010A    66 1754:0113    67 1754:011A    76 1754:011E
    77 1754:0128    78 1754:0138    86 1754:013C    87 1754:014A
    88 1754:015F    89 1754:0165    95 1754:016C    99 1754:017A
   100 1754:0195   101 1754:019B   107 1754:01A2   108 1754:01B0
   109 1754:01BA   110 1754:01C0   116 1754:01C7   117 1754:01D5
   118 1754:01DF   119 1754:01E5   125 1754:01EC   126 1754:01FA
   127 1754:0203   128 1754:020A   135 1754:0211   136 1754:021F
   137 1754:0233   138 1754:0245   143 1754:0249   144 1754:0257
   145 1754:0260   146 1754:0267   207 1754:02D2   208 1754:02E1
   209 1754:02F1   210 1754:02FB   211 1754:0301   212 1754:0307
   213 1754:030C   214 1754:0321   215 1754:032A   216 1754:0340
   217 1754:034B   218 1754:0351   220 1754:0357   221 1754:0363
   222 1754:0368   224 1754:0374   225 1754:0386   227 1754:0389
   228 1754:039A   229 1754:03A2   230 1754:03AC   231 1754:03B8
   232 1754:03BD   237 1754:03C2   239 1754:03C6   241 1754:03DB
   244 1754:03E1   246 1754:03F0   247 1754:03FD   248 1754:0403
   251 1754:041A   253 1754:041F   254 1754:042C   255 1754:0436
   264 1754:043C   265 1754:0454   266 1754:045A   270 1754:045D
   272 1754:046C   273 1754:0479   274 1754:047F   277 1754:0496
   278 1754:04B2   280 1754:04B8   281 1754:04C1   282 1754:04D8
   286 1754:04DA   288 1754:04E9   289 1754:04F6   290 1754:04FC
   293 1754:0513   294 1754:052F   295 1754:0538   298 1754:054F
   299 1754:056F   301 1754:0575   302 1754:057E   305 1754:0585
   307 1754:058D   308 1754:059F   310 1754:05A2   311 1754:05A6
   313 1754:05AE   314 1754:05B6   315 1754:05C0   316 1754:05CC
   317 1754:05D1   318 1754:05D7   320 1754:05DB   322 1754:05E4
   323 1754:05EA   325 1754:05F2   327 1754:05F8   328 1754:060A
   330 1754:060D   331 1754:0624   333 1754:062A   335 1754:0632
   336 1754:0652   337 1754:0663   338 1754:0665   339 1754:066B
   341 1754:066F   342 1754:0683   344 1754:068F   345 1754:06A6
   346 1754:06B2   348 1754:06D3   349 1754:06EE   351 1754:06F4
   353 1754:06FD   354 1754:070D   356 1754:0715   358 1754:0729
   360 1754:072B   362 1754:072E   363 1754:0735   365 1754:073B
   366 1754:0752   367 1754:075B   369 1754:0768   370 1754:0779
   371 1754:0788   372 1754:078F   373 1754:079E   375 1754:07B3
   378 1754:07B9   379 1754:07BC   381 1754:07C5   382 1754:07D7
   384 1754:07DC   385 1754:07E4   390 1754:07E8   391 1754:07F6
   393 1754:0807   395 1754:080B   397 1754:081A   399 1754:082B
   400 1754:082F   402 1754:083F   404 1754:084E   406 1754:085F
   407 1754:0863   408 1754:0873   410 1754:0883   412 1754:0892
   414 1754:08A3   415 1754:08A7   416 1754:08B7   417 1754:08C7
   419 1754:08D7   420 1754:08E5   421 1754:08F7   426 1754:08FC
   427 1754:0906   428 1754:0916   429 1754:0926   430 1754:0936
   444 1754:09C8   445 1754:09D7   447 1754:09DE   448 1754:09F0
   450 1754:09F3   451 1754:09FE   452 1754:0A10   453 1754:0A1E
   454 1754:0A34   455 1754:0A5D   457 1754:0A64   458 1754:0A77
   459 1754:0A7A   461 1754:0A7D   463 1754:0A87   464 1754:0A9E
   466 1754:0AA7   467 1754:0AB9   468 1754:0ABC   470 1754:0ABF
   471 1754:0AD2   473 1754:0ADD   474 1754:0B0C   475 1754:0B3D
   476 1754:0B6E   477 1754:0B78   480 1754:0B82   481 1754:0B8E
   482 1754:0B95   483 1754:0BB7   485 1754:0BBE   486 1754:0BD1
   487 1754:0BD4   489 1754:0BD7   490 1754:0BEC   492 1754:0BF3
   493 1754:0C05   494 1754:0C08   496 1754:0C0A   498 1754:0C18
   499 1754:0C6E   500 1754:0C71   502 1754:0C73   503 1754:0C7A
   504 1754:0C7D   509 1754:0C81   510 1754:0C8F   511 1754:0C9B
   529 1754:0CA2   530 1754:0CB0   532 1754:0CB5   535 1754:0CC9
   539 1754:0CD3   541 1754:0CE2   544 1754:0CEB   545 1754:0CFA
   548 1754:0D00   550 1754:0D08   551 1754:0D1C   554 1754:0D1F
   555 1754:0D28   557 1754:0D2E   558 1754:0D39   559 1754:0D45
   561 1754:0D63   562 1754:0D6A   564 1754:0D76   565 1754:0D97
   566 1754:0DA2   568 1754:0DA4   569 1754:0DA7   572 1754:0DAE
   573 1754:0DBD   574 1754:0DC3   575 1754:0DC9   576 1754:0DD5
   577 1754:0DF3   578 1754:0DF5   582 1754:0E00   583 1754:0E09
   584 1754:0E0F   585 1754:0E15   586 1754:0E21   587 1754:0E34
   591 1754:0E36   592 1754:0E3F   593 1754:0E45   594 1754:0E4B
   595 1754:0E57   597 1754:0E6A   599 1754:0E8C   600 1754:0E92
   606 1754:0E99   607 1754:0EA7   608 1754:0EAC   610 1754:0EC4
   611 1754:0ED5   613 1754:0EEB   614 1754:0EFF   615 1754:0F02
   616 1754:0F13   618 1754:0F29   619 1754:0F3D   620 1754:0F40
   621 1754:0F51   623 1754:0F67   624 1754:0F7B   625 1754:0F7E
   626 1754:0F8F   628 1754:0FA5   629 1754:0FB9   630 1754:0FBC
   631 1754:0FCD   633 1754:0FE3   634 1754:0FF7   635 1754:0FFA
   636 1754:100B   638 1754:1021   639 1754:1035   640 1754:1038
   641 1754:1049   643 1754:105F   644 1754:1073   645 1754:1076
   646 1754:1087   648 1754:109D   649 1754:10B1   650 1754:10B4
   651 1754:10BF   659 1754:10C3   660 1754:10D1   661 1754:10D6
   662 1754:10DA   664 1754:1105   665 1754:1118   666 1754:1130
   667 1754:1147   668 1754:115F   669 1754:1179   671 1754:117F
   673 1754:118F   674 1754:11AA   675 1754:11B2   676 1754:11D2
   677 1754:11D4   678 1754:11D7   679 1754:11DD   686 1754:1280
   687 1754:128F   688 1754:1295   689 1754:12A7   690 1754:12B5
   691 1754:12C6   693 1754:12D2   694 1754:12E4   696 1754:12E7
   698 1754:1301   699 1754:1313   703 1754:1316   704 1754:1331
   707 1754:1340   708 1754:1359   709 1754:1372   710 1754:138B
   712 1754:1396   714 1754:13B6   715 1754:13C8   717 1754:13CA
   720 1754:13E3   722 1754:1411   723 1754:1423   726 1754:1425
   727 1754:143E   728 1754:1445

Line numbers for CFG(CFG.PAS) segment CFG

    59 1899:0000    60 1899:000F    61 1899:0028    62 1899:0044
    63 1899:0053    64 1899:0067    65 1899:007A    73 1899:007C
    74 1899:008A    75 1899:0093    76 1899:00A4    77 1899:00B5
    78 1899:00C6    79 1899:00D7    81 1899:00E6    82 1899:00EA
    83 1899:00F6    84 1899:0116    95 1899:02A3    96 1899:02A7
    97 1899:02A9    98 1899:02B4   109 1899:02BB   110 1899:02CA
   111 1899:02D4   113 1899:02EC   114 1899:02F2   115 1899:02F7
   117 1899:0316   118 1899:0353   119 1899:0357   121 1899:0359
   123 1899:036A   124 1899:037D   129 1899:0381   130 1899:0390
   131 1899:03A6   137 1899:03AD   138 1899:03D3   139 1899:03F0
   140 1899:0410   141 1899:0423   147 1899:04C5   148 1899:04D4
   149 1899:04F9   150 1899:050B   152 1899:0512   153 1899:0516
   154 1899:0522   155 1899:0545   158 1899:0547   159 1899:055D
   160 1899:0566   163 1899:0579   164 1899:058B   166 1899:0592
   167 1899:0596   168 1899:05A2   169 1899:05C5   172 1899:05C7
   173 1899:05DD   174 1899:05E6   177 1899:05F9   178 1899:060B
   180 1899:0612   181 1899:0616   182 1899:0622   183 1899:0645
   186 1899:0647   187 1899:065D   188 1899:0666   191 1899:0679
   192 1899:068B   194 1899:0692   195 1899:0696   196 1899:06A2
   197 1899:06C5   200 1899:06C7   201 1899:06DD   202 1899:06E6
   205 1899:06F9   206 1899:070B   208 1899:0712   209 1899:0716
   210 1899:0722   211 1899:0745   214 1899:0747   215 1899:075D
   216 1899:0766   219 1899:0779   220 1899:0781   226 1899:0857
   227 1899:087D   228 1899:0882   229 1899:0887   230 1899:088C
   232 1899:0891   233 1899:0896   234 1899:089B   235 1899:08A0
   236 1899:08A5   237 1899:08AA   238 1899:08B0   239 1899:08C2
   241 1899:08D5   242 1899:08FF   243 1899:090A   244 1899:0913
   245 1899:0916   248 1899:0928   249 1899:094E   250 1899:0964
   251 1899:096B   252 1899:0976   254 1899:098B   255 1899:09B1
   256 1899:09C3   257 1899:09CF   259 1899:09E1   260 1899:09ED
   261 1899:09F5   262 1899:09F8   264 1899:0A0A   265 1899:0A16
   266 1899:0A1E   267 1899:0A21   269 1899:0A33   270 1899:0A3F
   271 1899:0A47   274 1899:0A49   275 1899:0A4E   276 1899:0A53
   277 1899:0A77   278 1899:0A9A   280 1899:0AA1   281 1899:0AA4
   283 1899:0AB9   284 1899:0ADF   286 1899:0AF1   288 1899:0AFA
   289 1899:0AFF   291 1899:0B04   292 1899:0B07   294 1899:0B1C
   295 1899:0B42   296 1899:0B54   297 1899:0B5B   298 1899:0B6D
   301 1899:0B74   302 1899:0B79   303 1899:0B7E   304 1899:0B94
   306 1899:0BB7   309 1899:0BB9   310 1899:0BBE   311 1899:0BC3
   312 1899:0BD9   313 1899:0BFC   315 1899:0C03   316 1899:0C0B
   319 1899:0C0D   320 1899:0C12   321 1899:0C17   322 1899:0C3B
   323 1899:0C52   325 1899:0C59   326 1899:0C62   327 1899:0C65
   328 1899:0C70   332 1899:0C7E   333 1899:0C88   334 1899:0C97
   335 1899:0C9F   336 1899:0CA7   337 1899:0CB7

Line numbers for CMFTool(CMFTOOL.PAS) segment CMFTool

    56 1965:0149    57 1965:0153    58 1965:0156    59 1965:0179
    60 1965:019C    61 1965:01BF    62 1965:01E2    63 1965:0205
    64 1965:0228    65 1965:024B    66 1965:026D    67 1965:028F
    68 1965:02B1    70 1965:02D1    75 1965:02D3    76 1965:02F9
    78 1965:030A    79 1965:0318    81 1965:0323    82 1965:033C
    88 1965:0343    89 1965:0351    90 1965:0359    91 1965:036C
    92 1965:0371    93 1965:0377    94 1965:0381    95 1965:0397
    96 1965:03A7   114 1965:03AB   115 1965:03D1   118 1965:03DE
   119 1965:03E5   120 1965:03E9   121 1965:03EF   123 1965:03F2
   124 1965:0403   125 1965:0415   126 1965:042D   128 1965:043D
   129 1965:0449   130 1965:0459   131 1965:045D   132 1965:0463
   134 1965:0466   136 1965:046C   137 1965:04A7   138 1965:04AB
   139 1965:04B2   141 1965:04C2   142 1965:04D3   144 1965:04D8
   145 1965:04F8   146 1965:04FE   147 1965:0503   148 1965:050A
   149 1965:0511   150 1965:0515   151 1965:051B   154 1965:051D
   155 1965:0521   156 1965:0526   159 1965:052D   160 1965:053B
   161 1965:0540   162 1965:054B   163 1965:0555   164 1965:0559
   165 1965:0567   166 1965:056B   168 1965:0571   178 1965:0578
   180 1965:0586   181 1965:058F   182 1965:059D   184 1965:05AB
   186 1965:05AF   187 1965:05CB   188 1965:05D0   189 1965:05D4
   190 1965:05DA   192 1965:05E0   193 1965:05E6   194 1965:05EE
   195 1965:05FC   196 1965:0603   198 1965:0609   199 1965:060D
   201 1965:0613   202 1965:0615   205 1965:0617   206 1965:061B
   208 1965:0621   209 1965:062A   219 1965:062F   220 1965:0639
   221 1965:063F   222 1965:0644   223 1965:064A   224 1965:0658
   227 1965:065A   228 1965:0668   229 1965:0679   230 1965:0685
   231 1965:068B   232 1965:068F   234 1965:0691   235 1965:0697
   236 1965:06A2   237 1965:06AD   238 1965:06C0   239 1965:06CE
   240 1965:06D2   266 1965:06D9   267 1965:06E3   268 1965:06E9
   269 1965:0700   270 1965:070E   282 1965:0712   283 1965:0720
   285 1965:0731   287 1965:073D   288 1965:0749   289 1965:0751
   290 1965:0757   291 1965:0760   292 1965:0771   293 1965:077F
   294 1965:0786   295 1965:078A   296 1965:078F   298 1965:0791
   299 1965:0795   301 1965:079B   304 1965:07A2   305 1965:07B0
   306 1965:07B6   307 1965:07C4   308 1965:07CB   310 1965:07D1
   311 1965:07D5   313 1965:07DB   360 1965:07E0   361 1965:07EA
   362 1965:07F0   363 1965:07F5   364 1965:07FA   365 1965:0801
   366 1965:080F   367 1965:081D   370 1965:081F   372 1965:0829
   373 1965:0837   375 1965:0844   376 1965:0849   378 1965:084E
   379 1965:0855   380 1965:085C   381 1965:0861   383 1965:0865
   384 1965:0867   385 1965:0871   386 1965:0876

Line numbers for VOCTOOL(VOCTOOL.PAS) segment VOCTOOL

    46 19ED:0164    47 19ED:016E    48 19ED:0171    49 19ED:0194
    50 19ED:01B7    51 19ED:01DA    52 19ED:01FD    53 19ED:0220
    54 19ED:0243    55 19ED:0266    56 19ED:0289    57 19ED:02AC
    58 19ED:02CE    59 19ED:02F0    60 19ED:0312    62 19ED:0332
    70 19ED:0334    71 19ED:035A    73 19ED:036B    74 19ED:0379
    76 19ED:0384    77 19ED:039D    85 19ED:03A4    86 19ED:03B2
    87 19ED:03BA    88 19ED:03CD    89 19ED:03D2    90 19ED:03D8
    91 19ED:03E2    92 19ED:03F8    93 19ED:0408   113 19ED:040C
   114 19ED:0432   116 19ED:043F   117 19ED:0446   118 19ED:044A
   119 19ED:0450   121 19ED:0453   122 19ED:0464   123 19ED:0476
   124 19ED:048E   126 19ED:049E   127 19ED:04AA   128 19ED:04BA
   129 19ED:04BE   130 19ED:04C4   132 19ED:04C7   134 19ED:04CD
   135 19ED:0508   136 19ED:050C   137 19ED:0513   139 19ED:0523
   141 19ED:053C   142 19ED:0540   143 19ED:0546   146 19ED:0548
   147 19ED:054C   149 19ED:0551   150 19ED:055E   155 19ED:0565
   156 19ED:0573   157 19ED:0578   158 19ED:0583   159 19ED:058D
   160 19ED:0591   161 19ED:059F   162 19ED:05A3   164 19ED:05A9
   171 19ED:05B0   173 19ED:05BE   174 19ED:05C1   175 19ED:05C5
   177 19ED:05C8   178 19ED:05CE   212 19ED:05E0   214 19ED:05EF
   215 19ED:0609   216 19ED:062D   217 19ED:0655   219 19ED:0659
   220 19ED:0666   221 19ED:066A   222 19ED:0670   225 19ED:0673
   226 19ED:0684   227 19ED:0696   229 19ED:06B0   230 19ED:06B9
   231 19ED:06BD   232 19ED:06C3   234 19ED:06C6   235 19ED:06F1
   237 19ED:0701   239 19ED:0717   240 19ED:071B   241 19ED:0721
   244 19ED:0723   246 19ED:072A   247 19ED:072F   249 19ED:0735
   250 19ED:0738   251 19ED:073C   252 19ED:073F   253 19ED:0742
   254 19ED:0745   255 19ED:0748   258 19ED:074C   259 19ED:0752
   260 19ED:0756   261 19ED:075C   264 19ED:075E   265 19ED:0764
   266 19ED:0768   267 19ED:076E   270 19ED:0770   271 19ED:0776
   272 19ED:077A   273 19ED:0780   275 19ED:0782   282 19ED:0787
   283 19ED:0795   285 19ED:079C   286 19ED:079F   288 19ED:07A3
   289 19ED:07AF   296 19ED:07B1   297 19ED:07BF   299 19ED:07C7
   300 19ED:07CA   301 19ED:07CD   303 19ED:07D1   310 19ED:07D5
   311 19ED:07E3   312 19ED:07E9   313 19ED:07F1   315 19ED:0802
   316 19ED:0805   317 19ED:0808   318 19ED:080B   320 19ED:080F
   341 19ED:0813   343 19ED:081D   344 19ED:0820   346 19ED:0824
   401 19ED:0826   402 19ED:0830   403 19ED:0834   404 19ED:0842
   406 19ED:0860   410 19ED:086A   411 19ED:0878   413 19ED:0885
   414 19ED:088A   415 19ED:088F   416 19ED:0894   417 19ED:0899
   420 19ED:08AB   421 19ED:08B2   422 19ED:08B4   423 19ED:08BE
   424 19ED:08C3

Line numbers for VConvert(VCONVERT.PAS) segment VConvert

    27 1A7A:0000    28 1A7A:0026    29 1A7A:003F    30 1A7A:0046
    32 1A7A:0050    33 1A7A:005E    39 1A7A:0068    40 1A7A:008E
    41 1A7A:00AB    42 1A7A:00CB    43 1A7A:00DE    50 1A7A:00E2
    51 1A7A:00F0    52 1A7A:0108    53 1A7A:011A    62 1A7A:011E
    63 1A7A:012D    64 1A7A:016F    76 1A7A:0173    77 1A7A:0182
    78 1A7A:0187    79 1A7A:0192    80 1A7A:019C    81 1A7A:01DF
    82 1A7A:01F2    91 1A7A:01F6    92 1A7A:0205    93 1A7A:020A
    94 1A7A:0215    95 1A7A:021F    96 1A7A:0262    97 1A7A:0275

Line numbers for CNT(CNT.PAS) segment CNT

    13 1AA2:0209    14 1AA2:0213    15 1AA2:0218    16 1AA2:021E
    17 1AA2:0223    18 1AA2:0230    19 1AA2:0235    20 1AA2:023C
    21 1AA2:0257    22 1AA2:025E    23 1AA2:0276    24 1AA2:027D
    25 1AA2:0298    26 1AA2:029F    27 1AA2:02BA    28 1AA2:02C1
    29 1AA2:02D9    30 1AA2:02E0    31 1AA2:02FB    32 1AA2:0302
    33 1AA2:031D    34 1AA2:0324    35 1AA2:033F    36 1AA2:0346
    37 1AA2:0361    38 1AA2:0394    39 1AA2:03AF    40 1AA2:03CA
    41 1AA2:03D1    42 1AA2:03EC    43 1AA2:03F3    44 1AA2:040B
    45 1AA2:0426    46 1AA2:0435    47 1AA2:043C    48 1AA2:0457
    49 1AA2:045E    50 1AA2:0479    51 1AA2:0494    52 1AA2:04AF
    53 1AA2:04BE    54 1AA2:04C5    55 1AA2:04E0    56 1AA2:04E7
    57 1AA2:0502    58 1AA2:0511    59 1AA2:0518    60 1AA2:0533
    61 1AA2:053A    62 1AA2:0555    63 1AA2:0570    64 1AA2:058B
    65 1AA2:0591    66 1AA2:0596

Line numbers for Cursor(CURSOR.PAS) segment Cursor

    21 1AFC:0000    23 1AFC:000A    24 1AFC:000C    25 1AFC:000E
    26 1AFC:0010    27 1AFC:0012    29 1AFC:0014    34 1AFC:0016
    36 1AFC:0020    37 1AFC:0022    38 1AFC:0024    39 1AFC:0026
    40 1AFC:0028    41 1AFC:002A    43 1AFC:002C    48 1AFC:002E
    50 1AFC:0038    51 1AFC:003A    52 1AFC:003C    53 1AFC:003E
    54 1AFC:0040    55 1AFC:0042    57 1AFC:0044

Line numbers for Header(HEADER.PAS) segment Header

   227 1B01:0000   228 1B01:000A   229 1B01:000F   230 1B01:0014

Line numbers for ChFile(CHFILE.PAS) segment ChFile

    39 1B03:0000    40 1B03:0026    41 1B03:0043    42 1B03:0056
    48 1B03:00A8    49 1B03:00B7    50 1B03:00C0    51 1B03:00C9
    52 1B03:00E2    53 1B03:00EB    54 1B03:0105    55 1B03:010E
    56 1B03:0151    57 1B03:015A    58 1B03:0170    59 1B03:0179
    60 1B03:017E    61 1B03:0194    62 1B03:0199    63 1B03:01B3
    64 1B03:01B8    71 1B03:01BC    72 1B03:01CB    73 1B03:01D8
    74 1B03:01E8    75 1B03:01EF    76 1B03:01F4    77 1B03:020B
    78 1B03:0212    79 1B03:021F    88 1B03:022B    89 1B03:023A
    90 1B03:0244    91 1B03:024E    92 1B03:0272    93 1B03:027B
    94 1B03:028F    96 1B03:02BB    97 1B03:02D0    98 1B03:02D5
    99 1B03:02DA   101 1B03:0304   102 1B03:030E   104 1B03:0315
   105 1B03:0324   106 1B03:0335   108 1B03:0338   109 1B03:0340
   111 1B03:035C   113 1B03:0370   114 1B03:0394   115 1B03:039D
   116 1B03:03E9   117 1B03:03F0   119 1B03:03F6   120 1B03:03FB
   123 1B03:0402   124 1B03:040C   125 1B03:040F   127 1B03:0437
   128 1B03:0443   130 1B03:0449   131 1B03:044D   133 1B03:0459
   134 1B03:045B   136 1B03:0466   137 1B03:046D   139 1B03:0474
   140 1B03:047E   142 1B03:0488   143 1B03:04A2   144 1B03:04A7
   145 1B03:04D0   146 1B03:04EA   147 1B03:04EF   149 1B03:04FB
   150 1B03:0502   155 1B03:050C   156 1B03:0532   157 1B03:0536
   158 1B03:0551   160 1B03:0568   161 1B03:058C   162 1B03:058E
   163 1B03:0599   164 1B03:05AE   165 1B03:05B5   166 1B03:05BE
   167 1B03:05C4   194 1B03:05C8   195 1B03:05FC   196 1B03:060C
   197 1B03:0616   198 1B03:0623   199 1B03:0628   200 1B03:062D
   201 1B03:0632   203 1B03:0637   204 1B03:0647   205 1B03:064B
   206 1B03:065A   214 1B03:06C3   215 1B03:06F7   216 1B03:06FE
   217 1B03:0713   219 1B03:071A   220 1B03:0759   221 1B03:077A
   222 1B03:077D   223 1B03:0787   225 1B03:0791   226 1B03:079A
   227 1B03:07A1   228 1B03:07AF   229 1B03:07B6   230 1B03:07C3
   231 1B03:07CA   232 1B03:07D7   233 1B03:07DE   234 1B03:07EB
   235 1B03:07F2   236 1B03:080A   237 1B03:0811   239 1B03:0829
   240 1B03:083C   241 1B03:084C   242 1B03:0856   243 1B03:085D
   244 1B03:0862   245 1B03:0869   246 1B03:086E   247 1B03:0875
   248 1B03:087A   249 1B03:0881   250 1B03:0886   252 1B03:0888
   253 1B03:089B   254 1B03:08EB   255 1B03:08F2   256 1B03:0932
   257 1B03:0939   258 1B03:0940   259 1B03:094D   260 1B03:0952
   261 1B03:0957   262 1B03:0962

Line numbers for Ollis(OLLIS.PAS) segment Ollis

   199 1B9A:0000   200 1B9A:000E   201 1B9A:0013   202 1B9A:001F
   208 1B9A:0021   209 1B9A:002F   210 1B9A:0033   211 1B9A:0038
   212 1B9A:003D   214 1B9A:0043   215 1B9A:0048   216 1B9A:004D
   217 1B9A:0053   218 1B9A:0059   219 1B9A:005F   220 1B9A:0061
   222 1B9A:0068   223 1B9A:006D   224 1B9A:0072   225 1B9A:0078
   226 1B9A:007E   227 1B9A:0084   229 1B9A:0086   230 1B9A:0088
   231 1B9A:008E   232 1B9A:009A   233 1B9A:009E   239 1B9A:00A5
   242 1B9A:00C9   243 1B9A:00CF   244 1B9A:00D5   245 1B9A:00DB
   246 1B9A:00E1   247 1B9A:00E9   249 1B9A:00F6   270 1B9A:00FA
   273 1B9A:0108   274 1B9A:010D   275 1B9A:0112   276 1B9A:0117
   277 1B9A:011F   278 1B9A:0124   280 1B9A:0130   480 1B9A:0134
   481 1B9A:0142   482 1B9A:0147   483 1B9A:015F   489 1B9A:0161
   490 1B9A:016F   491 1B9A:0174   492 1B9A:018C   498 1B9A:018E
   501 1B9A:019C   502 1B9A:01AE   503 1B9A:01C0   504 1B9A:01CC
   505 1B9A:01DE   507 1B9A:01F0   515 1B9A:01F4   516 1B9A:0202
   517 1B9A:0216   518 1B9A:0228   761 1B9A:022C   762 1B9A:023A
   763 1B9A:023F   764 1B9A:0257   765 1B9A:025D   767 1B9A:0263
   768 1B9A:0267   774 1B9A:026C   775 1B9A:027A   776 1B9A:027F
   777 1B9A:0291   778 1B9A:02A9   779 1B9A:02BB   780 1B9A:02C3
   781 1B9A:02D2   787 1B9A:02D6   788 1B9A:02E4   789 1B9A:02F2
   790 1B9A:02F8   796 1B9A:02FD   797 1B9A:030B   798 1B9A:0319
   799 1B9A:031F   805 1B9A:0324   806 1B9A:0332   807 1B9A:0337
   808 1B9A:033D   809 1B9A:0355   810 1B9A:035B   812 1B9A:0361
   813 1B9A:0365   819 1B9A:036C   820 1B9A:037A   821 1B9A:037F
   822 1B9A:0385   823 1B9A:039D   824 1B9A:03A3   826 1B9A:03A9
   827 1B9A:03AD   843 1B9A:03B4   844 1B9A:03BE   845 1B9A:03D0

Program entry point at 0000:0000
